
As-needed library included to satisfy reference by file (symbol)

libarsdk.so                   /home/zxli/code/parrot-groundsdk/out/olympe-linux/build/libarsdkctrl/obj/libarsdkctrl/src/net/arsdkctrl_backend_net.c.o (arsdk_transport_net_get_cfg)
libulog.so                    /home/zxli/code/parrot-groundsdk/out/olympe-linux/build/libarsdkctrl/obj/libarsdkctrl/src/arsdk_discovery.c.o (ulog_log_write)
libpomp.so                    /home/zxli/code/parrot-groundsdk/out/olympe-linux/build/libarsdkctrl/obj/libarsdkctrl/src/ftp/arsdk_ftp_conn.c.o (pomp_conn_get_peer_addr)
libmux.so                     /home/zxli/code/parrot-groundsdk/out/olympe-linux/build/libarsdkctrl/obj/libarsdkctrl/src/arsdk_blackbox_itf.c.o (mux_ref)
libpuf.so                     /home/zxli/code/parrot-groundsdk/out/olympe-linux/build/libarsdkctrl/obj/libarsdkctrl/src/arsdk_updater_itf.c.o (puf_new)
libavahi-common.so.3          /home/zxli/code/parrot-groundsdk/out/olympe-linux/build/libarsdkctrl/obj/libarsdkctrl/src/net/arsdk_discovery_avahi.c.o (avahi_address_snprint)
libavahi-client.so.3          /home/zxli/code/parrot-groundsdk/out/olympe-linux/build/libarsdkctrl/obj/libarsdkctrl/src/net/arsdk_discovery_avahi.c.o (avahi_service_resolver_new)
libjson-c.so.5                /home/zxli/code/parrot-groundsdk/out/olympe-linux/build/libarsdkctrl/obj/libarsdkctrl/src/net/arsdkctrl_backend_net.c.o (json_object_new_object@@JSONC_0.14)
libpthread.so.0               /home/zxli/code/parrot-groundsdk/out/olympe-linux/build/libarsdkctrl/obj/libarsdkctrl/src/arsdk_md5.c.o (read@@GLIBC_2.2.5)
libc.so.6                     /home/zxli/code/parrot-groundsdk/out/olympe-linux/build/libarsdkctrl/obj/libarsdkctrl/src/arsdk_media_itf.c.o (gmtime_r@@GLIBC_2.2.5)

Discarded input sections

 .text          0x0000000000000000        0x0 /usr/lib/gcc/x86_64-linux-gnu/7/../../../x86_64-linux-gnu/crti.o
 .data          0x0000000000000000        0x0 /usr/lib/gcc/x86_64-linux-gnu/7/../../../x86_64-linux-gnu/crti.o
 .bss           0x0000000000000000        0x0 /usr/lib/gcc/x86_64-linux-gnu/7/../../../x86_64-linux-gnu/crti.o
 .note.GNU-stack
                0x0000000000000000        0x0 /usr/lib/gcc/x86_64-linux-gnu/7/../../../x86_64-linux-gnu/crti.o
 .data          0x0000000000000000        0x0 /usr/lib/gcc/x86_64-linux-gnu/7/crtbeginS.o
 .note.GNU-stack
                0x0000000000000000        0x0 /usr/lib/gcc/x86_64-linux-gnu/7/crtbeginS.o
 .text          0x0000000000000000        0x0 /home/zxli/code/parrot-groundsdk/out/olympe-linux/build/libarsdkctrl/obj/libarsdkctrl/src/arsdkctrl_log.c.o
 .data          0x0000000000000000        0x0 /home/zxli/code/parrot-groundsdk/out/olympe-linux/build/libarsdkctrl/obj/libarsdkctrl/src/arsdkctrl_log.c.o
 .bss           0x0000000000000000        0x0 /home/zxli/code/parrot-groundsdk/out/olympe-linux/build/libarsdkctrl/obj/libarsdkctrl/src/arsdkctrl_log.c.o
 .note.GNU-stack
                0x0000000000000000        0x0 /home/zxli/code/parrot-groundsdk/out/olympe-linux/build/libarsdkctrl/obj/libarsdkctrl/src/arsdkctrl_log.c.o
 .text          0x0000000000000000        0x0 /home/zxli/code/parrot-groundsdk/out/olympe-linux/build/libarsdkctrl/obj/libarsdkctrl/src/arsdk_discovery.c.o
 .data          0x0000000000000000        0x0 /home/zxli/code/parrot-groundsdk/out/olympe-linux/build/libarsdkctrl/obj/libarsdkctrl/src/arsdk_discovery.c.o
 .bss           0x0000000000000000        0x0 /home/zxli/code/parrot-groundsdk/out/olympe-linux/build/libarsdkctrl/obj/libarsdkctrl/src/arsdk_discovery.c.o
 .note.GNU-stack
                0x0000000000000000        0x0 /home/zxli/code/parrot-groundsdk/out/olympe-linux/build/libarsdkctrl/obj/libarsdkctrl/src/arsdk_discovery.c.o
 .text          0x0000000000000000        0x0 /home/zxli/code/parrot-groundsdk/out/olympe-linux/build/libarsdkctrl/obj/libarsdkctrl/src/arsdk_ctrl.c.o
 .data          0x0000000000000000        0x0 /home/zxli/code/parrot-groundsdk/out/olympe-linux/build/libarsdkctrl/obj/libarsdkctrl/src/arsdk_ctrl.c.o
 .bss           0x0000000000000000        0x0 /home/zxli/code/parrot-groundsdk/out/olympe-linux/build/libarsdkctrl/obj/libarsdkctrl/src/arsdk_ctrl.c.o
 .note.GNU-stack
                0x0000000000000000        0x0 /home/zxli/code/parrot-groundsdk/out/olympe-linux/build/libarsdkctrl/obj/libarsdkctrl/src/arsdk_ctrl.c.o
 .text          0x0000000000000000        0x0 /home/zxli/code/parrot-groundsdk/out/olympe-linux/build/libarsdkctrl/obj/libarsdkctrl/src/arsdkctrl_backend.c.o
 .data          0x0000000000000000        0x0 /home/zxli/code/parrot-groundsdk/out/olympe-linux/build/libarsdkctrl/obj/libarsdkctrl/src/arsdkctrl_backend.c.o
 .bss           0x0000000000000000        0x0 /home/zxli/code/parrot-groundsdk/out/olympe-linux/build/libarsdkctrl/obj/libarsdkctrl/src/arsdkctrl_backend.c.o
 .note.GNU-stack
                0x0000000000000000        0x0 /home/zxli/code/parrot-groundsdk/out/olympe-linux/build/libarsdkctrl/obj/libarsdkctrl/src/arsdkctrl_backend.c.o
 .text          0x0000000000000000        0x0 /home/zxli/code/parrot-groundsdk/out/olympe-linux/build/libarsdkctrl/obj/libarsdkctrl/src/arsdk_media_itf.c.o
 .data          0x0000000000000000        0x0 /home/zxli/code/parrot-groundsdk/out/olympe-linux/build/libarsdkctrl/obj/libarsdkctrl/src/arsdk_media_itf.c.o
 .bss           0x0000000000000000        0x0 /home/zxli/code/parrot-groundsdk/out/olympe-linux/build/libarsdkctrl/obj/libarsdkctrl/src/arsdk_media_itf.c.o
 .note.GNU-stack
                0x0000000000000000        0x0 /home/zxli/code/parrot-groundsdk/out/olympe-linux/build/libarsdkctrl/obj/libarsdkctrl/src/arsdk_media_itf.c.o
 .text          0x0000000000000000        0x0 /home/zxli/code/parrot-groundsdk/out/olympe-linux/build/libarsdkctrl/obj/libarsdkctrl/src/arsdk_updater_itf.c.o
 .data          0x0000000000000000        0x0 /home/zxli/code/parrot-groundsdk/out/olympe-linux/build/libarsdkctrl/obj/libarsdkctrl/src/arsdk_updater_itf.c.o
 .bss           0x0000000000000000        0x0 /home/zxli/code/parrot-groundsdk/out/olympe-linux/build/libarsdkctrl/obj/libarsdkctrl/src/arsdk_updater_itf.c.o
 .text.arsdk_updater_req_upload_get_transport
                0x0000000000000000       0x13 /home/zxli/code/parrot-groundsdk/out/olympe-linux/build/libarsdkctrl/obj/libarsdkctrl/src/arsdk_updater_itf.c.o
 .note.GNU-stack
                0x0000000000000000        0x0 /home/zxli/code/parrot-groundsdk/out/olympe-linux/build/libarsdkctrl/obj/libarsdkctrl/src/arsdk_updater_itf.c.o
 .text          0x0000000000000000        0x0 /home/zxli/code/parrot-groundsdk/out/olympe-linux/build/libarsdkctrl/obj/libarsdkctrl/src/arsdk_blackbox_itf.c.o
 .data          0x0000000000000000        0x0 /home/zxli/code/parrot-groundsdk/out/olympe-linux/build/libarsdkctrl/obj/libarsdkctrl/src/arsdk_blackbox_itf.c.o
 .bss           0x0000000000000000        0x0 /home/zxli/code/parrot-groundsdk/out/olympe-linux/build/libarsdkctrl/obj/libarsdkctrl/src/arsdk_blackbox_itf.c.o
 .note.GNU-stack
                0x0000000000000000        0x0 /home/zxli/code/parrot-groundsdk/out/olympe-linux/build/libarsdkctrl/obj/libarsdkctrl/src/arsdk_blackbox_itf.c.o
 .text          0x0000000000000000        0x0 /home/zxli/code/parrot-groundsdk/out/olympe-linux/build/libarsdkctrl/obj/libarsdkctrl/src/arsdk_crashml_itf.c.o
 .data          0x0000000000000000        0x0 /home/zxli/code/parrot-groundsdk/out/olympe-linux/build/libarsdkctrl/obj/libarsdkctrl/src/arsdk_crashml_itf.c.o
 .bss           0x0000000000000000        0x0 /home/zxli/code/parrot-groundsdk/out/olympe-linux/build/libarsdkctrl/obj/libarsdkctrl/src/arsdk_crashml_itf.c.o
 .note.GNU-stack
                0x0000000000000000        0x0 /home/zxli/code/parrot-groundsdk/out/olympe-linux/build/libarsdkctrl/obj/libarsdkctrl/src/arsdk_crashml_itf.c.o
 .text          0x0000000000000000        0x0 /home/zxli/code/parrot-groundsdk/out/olympe-linux/build/libarsdkctrl/obj/libarsdkctrl/src/arsdk_flight_log_itf.c.o
 .data          0x0000000000000000        0x0 /home/zxli/code/parrot-groundsdk/out/olympe-linux/build/libarsdkctrl/obj/libarsdkctrl/src/arsdk_flight_log_itf.c.o
 .bss           0x0000000000000000        0x0 /home/zxli/code/parrot-groundsdk/out/olympe-linux/build/libarsdkctrl/obj/libarsdkctrl/src/arsdk_flight_log_itf.c.o
 .note.GNU-stack
                0x0000000000000000        0x0 /home/zxli/code/parrot-groundsdk/out/olympe-linux/build/libarsdkctrl/obj/libarsdkctrl/src/arsdk_flight_log_itf.c.o
 .text          0x0000000000000000        0x0 /home/zxli/code/parrot-groundsdk/out/olympe-linux/build/libarsdkctrl/obj/libarsdkctrl/src/arsdk_pud_itf.c.o
 .data          0x0000000000000000        0x0 /home/zxli/code/parrot-groundsdk/out/olympe-linux/build/libarsdkctrl/obj/libarsdkctrl/src/arsdk_pud_itf.c.o
 .bss           0x0000000000000000        0x0 /home/zxli/code/parrot-groundsdk/out/olympe-linux/build/libarsdkctrl/obj/libarsdkctrl/src/arsdk_pud_itf.c.o
 .note.GNU-stack
                0x0000000000000000        0x0 /home/zxli/code/parrot-groundsdk/out/olympe-linux/build/libarsdkctrl/obj/libarsdkctrl/src/arsdk_pud_itf.c.o
 .text          0x0000000000000000        0x0 /home/zxli/code/parrot-groundsdk/out/olympe-linux/build/libarsdkctrl/obj/libarsdkctrl/src/arsdk_ephemeris_itf.c.o
 .data          0x0000000000000000        0x0 /home/zxli/code/parrot-groundsdk/out/olympe-linux/build/libarsdkctrl/obj/libarsdkctrl/src/arsdk_ephemeris_itf.c.o
 .bss           0x0000000000000000        0x0 /home/zxli/code/parrot-groundsdk/out/olympe-linux/build/libarsdkctrl/obj/libarsdkctrl/src/arsdk_ephemeris_itf.c.o
 .note.GNU-stack
                0x0000000000000000        0x0 /home/zxli/code/parrot-groundsdk/out/olympe-linux/build/libarsdkctrl/obj/libarsdkctrl/src/arsdk_ephemeris_itf.c.o
 .text          0x0000000000000000        0x0 /home/zxli/code/parrot-groundsdk/out/olympe-linux/build/libarsdkctrl/obj/libarsdkctrl/src/arsdk_md5.c.o
 .data          0x0000000000000000        0x0 /home/zxli/code/parrot-groundsdk/out/olympe-linux/build/libarsdkctrl/obj/libarsdkctrl/src/arsdk_md5.c.o
 .bss           0x0000000000000000        0x0 /home/zxli/code/parrot-groundsdk/out/olympe-linux/build/libarsdkctrl/obj/libarsdkctrl/src/arsdk_md5.c.o
 .text.arsdk_md5_init
                0x0000000000000000       0x24 /home/zxli/code/parrot-groundsdk/out/olympe-linux/build/libarsdkctrl/obj/libarsdkctrl/src/arsdk_md5.c.o
 .note.GNU-stack
                0x0000000000000000        0x0 /home/zxli/code/parrot-groundsdk/out/olympe-linux/build/libarsdkctrl/obj/libarsdkctrl/src/arsdk_md5.c.o
 .text          0x0000000000000000        0x0 /home/zxli/code/parrot-groundsdk/out/olympe-linux/build/libarsdkctrl/obj/libarsdkctrl/src/updater/arsdk_updater_transport.c.o
 .data          0x0000000000000000        0x0 /home/zxli/code/parrot-groundsdk/out/olympe-linux/build/libarsdkctrl/obj/libarsdkctrl/src/updater/arsdk_updater_transport.c.o
 .bss           0x0000000000000000        0x0 /home/zxli/code/parrot-groundsdk/out/olympe-linux/build/libarsdkctrl/obj/libarsdkctrl/src/updater/arsdk_updater_transport.c.o
 .text.arsdk_updater_transport_cancel_all
                0x0000000000000000       0x86 /home/zxli/code/parrot-groundsdk/out/olympe-linux/build/libarsdkctrl/obj/libarsdkctrl/src/updater/arsdk_updater_transport.c.o
 .note.GNU-stack
                0x0000000000000000        0x0 /home/zxli/code/parrot-groundsdk/out/olympe-linux/build/libarsdkctrl/obj/libarsdkctrl/src/updater/arsdk_updater_transport.c.o
 .text          0x0000000000000000        0x0 /home/zxli/code/parrot-groundsdk/out/olympe-linux/build/libarsdkctrl/obj/libarsdkctrl/src/updater/arsdk_updater_transport_ftp.c.o
 .data          0x0000000000000000        0x0 /home/zxli/code/parrot-groundsdk/out/olympe-linux/build/libarsdkctrl/obj/libarsdkctrl/src/updater/arsdk_updater_transport_ftp.c.o
 .bss           0x0000000000000000        0x0 /home/zxli/code/parrot-groundsdk/out/olympe-linux/build/libarsdkctrl/obj/libarsdkctrl/src/updater/arsdk_updater_transport_ftp.c.o
 .note.GNU-stack
                0x0000000000000000        0x0 /home/zxli/code/parrot-groundsdk/out/olympe-linux/build/libarsdkctrl/obj/libarsdkctrl/src/updater/arsdk_updater_transport_ftp.c.o
 .text          0x0000000000000000        0x0 /home/zxli/code/parrot-groundsdk/out/olympe-linux/build/libarsdkctrl/obj/libarsdkctrl/src/updater/arsdk_updater_transport_mux.c.o
 .data          0x0000000000000000        0x0 /home/zxli/code/parrot-groundsdk/out/olympe-linux/build/libarsdkctrl/obj/libarsdkctrl/src/updater/arsdk_updater_transport_mux.c.o
 .bss           0x0000000000000000        0x0 /home/zxli/code/parrot-groundsdk/out/olympe-linux/build/libarsdkctrl/obj/libarsdkctrl/src/updater/arsdk_updater_transport_mux.c.o
 .note.GNU-stack
                0x0000000000000000        0x0 /home/zxli/code/parrot-groundsdk/out/olympe-linux/build/libarsdkctrl/obj/libarsdkctrl/src/updater/arsdk_updater_transport_mux.c.o
 .text          0x0000000000000000        0x0 /home/zxli/code/parrot-groundsdk/out/olympe-linux/build/libarsdkctrl/obj/libarsdkctrl/src/arsdk_ftp_itf.c.o
 .data          0x0000000000000000        0x0 /home/zxli/code/parrot-groundsdk/out/olympe-linux/build/libarsdkctrl/obj/libarsdkctrl/src/arsdk_ftp_itf.c.o
 .bss           0x0000000000000000        0x0 /home/zxli/code/parrot-groundsdk/out/olympe-linux/build/libarsdkctrl/obj/libarsdkctrl/src/arsdk_ftp_itf.c.o
 .note.GNU-stack
                0x0000000000000000        0x0 /home/zxli/code/parrot-groundsdk/out/olympe-linux/build/libarsdkctrl/obj/libarsdkctrl/src/arsdk_ftp_itf.c.o
 .text          0x0000000000000000        0x0 /home/zxli/code/parrot-groundsdk/out/olympe-linux/build/libarsdkctrl/obj/libarsdkctrl/src/arsdk_device.c.o
 .data          0x0000000000000000        0x0 /home/zxli/code/parrot-groundsdk/out/olympe-linux/build/libarsdkctrl/obj/libarsdkctrl/src/arsdk_device.c.o
 .bss           0x0000000000000000        0x0 /home/zxli/code/parrot-groundsdk/out/olympe-linux/build/libarsdkctrl/obj/libarsdkctrl/src/arsdk_device.c.o
 .text.arsdk_device_clear_backend
                0x0000000000000000       0x9d /home/zxli/code/parrot-groundsdk/out/olympe-linux/build/libarsdkctrl/obj/libarsdkctrl/src/arsdk_device.c.o
 .note.GNU-stack
                0x0000000000000000        0x0 /home/zxli/code/parrot-groundsdk/out/olympe-linux/build/libarsdkctrl/obj/libarsdkctrl/src/arsdk_device.c.o
 .text          0x0000000000000000        0x0 /home/zxli/code/parrot-groundsdk/out/olympe-linux/build/libarsdkctrl/obj/libarsdkctrl/src/net/arsdkctrl_backend_net.c.o
 .data          0x0000000000000000        0x0 /home/zxli/code/parrot-groundsdk/out/olympe-linux/build/libarsdkctrl/obj/libarsdkctrl/src/net/arsdkctrl_backend_net.c.o
 .bss           0x0000000000000000        0x0 /home/zxli/code/parrot-groundsdk/out/olympe-linux/build/libarsdkctrl/obj/libarsdkctrl/src/net/arsdkctrl_backend_net.c.o
 .note.GNU-stack
                0x0000000000000000        0x0 /home/zxli/code/parrot-groundsdk/out/olympe-linux/build/libarsdkctrl/obj/libarsdkctrl/src/net/arsdkctrl_backend_net.c.o
 .text          0x0000000000000000        0x0 /home/zxli/code/parrot-groundsdk/out/olympe-linux/build/libarsdkctrl/obj/libarsdkctrl/src/net/arsdk_avahi_loop.c.o
 .data          0x0000000000000000        0x0 /home/zxli/code/parrot-groundsdk/out/olympe-linux/build/libarsdkctrl/obj/libarsdkctrl/src/net/arsdk_avahi_loop.c.o
 .bss           0x0000000000000000        0x0 /home/zxli/code/parrot-groundsdk/out/olympe-linux/build/libarsdkctrl/obj/libarsdkctrl/src/net/arsdk_avahi_loop.c.o
 .note.GNU-stack
                0x0000000000000000        0x0 /home/zxli/code/parrot-groundsdk/out/olympe-linux/build/libarsdkctrl/obj/libarsdkctrl/src/net/arsdk_avahi_loop.c.o
 .text          0x0000000000000000        0x0 /home/zxli/code/parrot-groundsdk/out/olympe-linux/build/libarsdkctrl/obj/libarsdkctrl/src/net/arsdk_discovery_avahi.c.o
 .data          0x0000000000000000        0x0 /home/zxli/code/parrot-groundsdk/out/olympe-linux/build/libarsdkctrl/obj/libarsdkctrl/src/net/arsdk_discovery_avahi.c.o
 .bss           0x0000000000000000        0x0 /home/zxli/code/parrot-groundsdk/out/olympe-linux/build/libarsdkctrl/obj/libarsdkctrl/src/net/arsdk_discovery_avahi.c.o
 .note.GNU-stack
                0x0000000000000000        0x0 /home/zxli/code/parrot-groundsdk/out/olympe-linux/build/libarsdkctrl/obj/libarsdkctrl/src/net/arsdk_discovery_avahi.c.o
 .text          0x0000000000000000        0x0 /home/zxli/code/parrot-groundsdk/out/olympe-linux/build/libarsdkctrl/obj/libarsdkctrl/src/net/arsdk_discovery_net.c.o
 .data          0x0000000000000000        0x0 /home/zxli/code/parrot-groundsdk/out/olympe-linux/build/libarsdkctrl/obj/libarsdkctrl/src/net/arsdk_discovery_net.c.o
 .bss           0x0000000000000000        0x0 /home/zxli/code/parrot-groundsdk/out/olympe-linux/build/libarsdkctrl/obj/libarsdkctrl/src/net/arsdk_discovery_net.c.o
 .note.GNU-stack
                0x0000000000000000        0x0 /home/zxli/code/parrot-groundsdk/out/olympe-linux/build/libarsdkctrl/obj/libarsdkctrl/src/net/arsdk_discovery_net.c.o
 .text          0x0000000000000000        0x0 /home/zxli/code/parrot-groundsdk/out/olympe-linux/build/libarsdkctrl/obj/libarsdkctrl/src/mux/arsdkctrl_backend_mux.c.o
 .data          0x0000000000000000        0x0 /home/zxli/code/parrot-groundsdk/out/olympe-linux/build/libarsdkctrl/obj/libarsdkctrl/src/mux/arsdkctrl_backend_mux.c.o
 .bss           0x0000000000000000        0x0 /home/zxli/code/parrot-groundsdk/out/olympe-linux/build/libarsdkctrl/obj/libarsdkctrl/src/mux/arsdkctrl_backend_mux.c.o
 .note.GNU-stack
                0x0000000000000000        0x0 /home/zxli/code/parrot-groundsdk/out/olympe-linux/build/libarsdkctrl/obj/libarsdkctrl/src/mux/arsdkctrl_backend_mux.c.o
 .text          0x0000000000000000        0x0 /home/zxli/code/parrot-groundsdk/out/olympe-linux/build/libarsdkctrl/obj/libarsdkctrl/src/mux/arsdk_discovery_mux.c.o
 .data          0x0000000000000000        0x0 /home/zxli/code/parrot-groundsdk/out/olympe-linux/build/libarsdkctrl/obj/libarsdkctrl/src/mux/arsdk_discovery_mux.c.o
 .bss           0x0000000000000000        0x0 /home/zxli/code/parrot-groundsdk/out/olympe-linux/build/libarsdkctrl/obj/libarsdkctrl/src/mux/arsdk_discovery_mux.c.o
 .note.GNU-stack
                0x0000000000000000        0x0 /home/zxli/code/parrot-groundsdk/out/olympe-linux/build/libarsdkctrl/obj/libarsdkctrl/src/mux/arsdk_discovery_mux.c.o
 .text          0x0000000000000000        0x0 /home/zxli/code/parrot-groundsdk/out/olympe-linux/build/libarsdkctrl/obj/libarsdkctrl/src/ftp/arsdk_ftp.c.o
 .data          0x0000000000000000        0x0 /home/zxli/code/parrot-groundsdk/out/olympe-linux/build/libarsdkctrl/obj/libarsdkctrl/src/ftp/arsdk_ftp.c.o
 .bss           0x0000000000000000        0x0 /home/zxli/code/parrot-groundsdk/out/olympe-linux/build/libarsdkctrl/obj/libarsdkctrl/src/ftp/arsdk_ftp.c.o
 .note.GNU-stack
                0x0000000000000000        0x0 /home/zxli/code/parrot-groundsdk/out/olympe-linux/build/libarsdkctrl/obj/libarsdkctrl/src/ftp/arsdk_ftp.c.o
 .text          0x0000000000000000        0x0 /home/zxli/code/parrot-groundsdk/out/olympe-linux/build/libarsdkctrl/obj/libarsdkctrl/src/ftp/arsdk_ftp_conn.c.o
 .data          0x0000000000000000        0x0 /home/zxli/code/parrot-groundsdk/out/olympe-linux/build/libarsdkctrl/obj/libarsdkctrl/src/ftp/arsdk_ftp_conn.c.o
 .bss           0x0000000000000000        0x0 /home/zxli/code/parrot-groundsdk/out/olympe-linux/build/libarsdkctrl/obj/libarsdkctrl/src/ftp/arsdk_ftp_conn.c.o
 .note.GNU-stack
                0x0000000000000000        0x0 /home/zxli/code/parrot-groundsdk/out/olympe-linux/build/libarsdkctrl/obj/libarsdkctrl/src/ftp/arsdk_ftp_conn.c.o
 .text          0x0000000000000000        0x0 /home/zxli/code/parrot-groundsdk/out/olympe-linux/build/libarsdkctrl/obj/libarsdkctrl/src/ftp/arsdk_ftp_seq.c.o
 .data          0x0000000000000000        0x0 /home/zxli/code/parrot-groundsdk/out/olympe-linux/build/libarsdkctrl/obj/libarsdkctrl/src/ftp/arsdk_ftp_seq.c.o
 .bss           0x0000000000000000        0x0 /home/zxli/code/parrot-groundsdk/out/olympe-linux/build/libarsdkctrl/obj/libarsdkctrl/src/ftp/arsdk_ftp_seq.c.o
 .note.GNU-stack
                0x0000000000000000        0x0 /home/zxli/code/parrot-groundsdk/out/olympe-linux/build/libarsdkctrl/obj/libarsdkctrl/src/ftp/arsdk_ftp_seq.c.o
 .text          0x0000000000000000        0x0 /home/zxli/code/parrot-groundsdk/out/olympe-linux/build/libarsdkctrl/obj/libarsdkctrl/src/ftp/arsdk_ftp_cmd.c.o
 .data          0x0000000000000000        0x0 /home/zxli/code/parrot-groundsdk/out/olympe-linux/build/libarsdkctrl/obj/libarsdkctrl/src/ftp/arsdk_ftp_cmd.c.o
 .bss           0x0000000000000000        0x0 /home/zxli/code/parrot-groundsdk/out/olympe-linux/build/libarsdkctrl/obj/libarsdkctrl/src/ftp/arsdk_ftp_cmd.c.o
 .note.GNU-stack
                0x0000000000000000        0x0 /home/zxli/code/parrot-groundsdk/out/olympe-linux/build/libarsdkctrl/obj/libarsdkctrl/src/ftp/arsdk_ftp_cmd.c.o
 .text          0x0000000000000000        0x0 /usr/lib/gcc/x86_64-linux-gnu/7/crtendS.o
 .data          0x0000000000000000        0x0 /usr/lib/gcc/x86_64-linux-gnu/7/crtendS.o
 .bss           0x0000000000000000        0x0 /usr/lib/gcc/x86_64-linux-gnu/7/crtendS.o
 .note.GNU-stack
                0x0000000000000000        0x0 /usr/lib/gcc/x86_64-linux-gnu/7/crtendS.o
 .text          0x0000000000000000        0x0 /usr/lib/gcc/x86_64-linux-gnu/7/../../../x86_64-linux-gnu/crtn.o
 .data          0x0000000000000000        0x0 /usr/lib/gcc/x86_64-linux-gnu/7/../../../x86_64-linux-gnu/crtn.o
 .bss           0x0000000000000000        0x0 /usr/lib/gcc/x86_64-linux-gnu/7/../../../x86_64-linux-gnu/crtn.o
 .note.GNU-stack
                0x0000000000000000        0x0 /usr/lib/gcc/x86_64-linux-gnu/7/../../../x86_64-linux-gnu/crtn.o

Memory Configuration

Name             Origin             Length             Attributes
*default*        0x0000000000000000 0xffffffffffffffff

Linker script and memory map

LOAD /usr/lib/gcc/x86_64-linux-gnu/7/../../../x86_64-linux-gnu/crti.o
LOAD /usr/lib/gcc/x86_64-linux-gnu/7/crtbeginS.o
LOAD /home/zxli/code/parrot-groundsdk/out/olympe-linux/build/libarsdkctrl/obj/libarsdkctrl/src/arsdkctrl_log.c.o
LOAD /home/zxli/code/parrot-groundsdk/out/olympe-linux/build/libarsdkctrl/obj/libarsdkctrl/src/arsdk_discovery.c.o
LOAD /home/zxli/code/parrot-groundsdk/out/olympe-linux/build/libarsdkctrl/obj/libarsdkctrl/src/arsdk_ctrl.c.o
LOAD /home/zxli/code/parrot-groundsdk/out/olympe-linux/build/libarsdkctrl/obj/libarsdkctrl/src/arsdkctrl_backend.c.o
LOAD /home/zxli/code/parrot-groundsdk/out/olympe-linux/build/libarsdkctrl/obj/libarsdkctrl/src/arsdk_media_itf.c.o
LOAD /home/zxli/code/parrot-groundsdk/out/olympe-linux/build/libarsdkctrl/obj/libarsdkctrl/src/arsdk_updater_itf.c.o
LOAD /home/zxli/code/parrot-groundsdk/out/olympe-linux/build/libarsdkctrl/obj/libarsdkctrl/src/arsdk_blackbox_itf.c.o
LOAD /home/zxli/code/parrot-groundsdk/out/olympe-linux/build/libarsdkctrl/obj/libarsdkctrl/src/arsdk_crashml_itf.c.o
LOAD /home/zxli/code/parrot-groundsdk/out/olympe-linux/build/libarsdkctrl/obj/libarsdkctrl/src/arsdk_flight_log_itf.c.o
LOAD /home/zxli/code/parrot-groundsdk/out/olympe-linux/build/libarsdkctrl/obj/libarsdkctrl/src/arsdk_pud_itf.c.o
LOAD /home/zxli/code/parrot-groundsdk/out/olympe-linux/build/libarsdkctrl/obj/libarsdkctrl/src/arsdk_ephemeris_itf.c.o
LOAD /home/zxli/code/parrot-groundsdk/out/olympe-linux/build/libarsdkctrl/obj/libarsdkctrl/src/arsdk_md5.c.o
LOAD /home/zxli/code/parrot-groundsdk/out/olympe-linux/build/libarsdkctrl/obj/libarsdkctrl/src/updater/arsdk_updater_transport.c.o
LOAD /home/zxli/code/parrot-groundsdk/out/olympe-linux/build/libarsdkctrl/obj/libarsdkctrl/src/updater/arsdk_updater_transport_ftp.c.o
LOAD /home/zxli/code/parrot-groundsdk/out/olympe-linux/build/libarsdkctrl/obj/libarsdkctrl/src/updater/arsdk_updater_transport_mux.c.o
LOAD /home/zxli/code/parrot-groundsdk/out/olympe-linux/build/libarsdkctrl/obj/libarsdkctrl/src/arsdk_ftp_itf.c.o
LOAD /home/zxli/code/parrot-groundsdk/out/olympe-linux/build/libarsdkctrl/obj/libarsdkctrl/src/arsdk_device.c.o
LOAD /home/zxli/code/parrot-groundsdk/out/olympe-linux/build/libarsdkctrl/obj/libarsdkctrl/src/net/arsdkctrl_backend_net.c.o
LOAD /home/zxli/code/parrot-groundsdk/out/olympe-linux/build/libarsdkctrl/obj/libarsdkctrl/src/net/arsdk_avahi_loop.c.o
LOAD /home/zxli/code/parrot-groundsdk/out/olympe-linux/build/libarsdkctrl/obj/libarsdkctrl/src/net/arsdk_discovery_avahi.c.o
LOAD /home/zxli/code/parrot-groundsdk/out/olympe-linux/build/libarsdkctrl/obj/libarsdkctrl/src/net/arsdk_discovery_net.c.o
LOAD /home/zxli/code/parrot-groundsdk/out/olympe-linux/build/libarsdkctrl/obj/libarsdkctrl/src/mux/arsdkctrl_backend_mux.c.o
LOAD /home/zxli/code/parrot-groundsdk/out/olympe-linux/build/libarsdkctrl/obj/libarsdkctrl/src/mux/arsdk_discovery_mux.c.o
LOAD /home/zxli/code/parrot-groundsdk/out/olympe-linux/build/libarsdkctrl/obj/libarsdkctrl/src/ftp/arsdk_ftp.c.o
LOAD /home/zxli/code/parrot-groundsdk/out/olympe-linux/build/libarsdkctrl/obj/libarsdkctrl/src/ftp/arsdk_ftp_conn.c.o
LOAD /home/zxli/code/parrot-groundsdk/out/olympe-linux/build/libarsdkctrl/obj/libarsdkctrl/src/ftp/arsdk_ftp_seq.c.o
LOAD /home/zxli/code/parrot-groundsdk/out/olympe-linux/build/libarsdkctrl/obj/libarsdkctrl/src/ftp/arsdk_ftp_cmd.c.o
LOAD /home/zxli/code/parrot-groundsdk/out/olympe-linux/staging/usr/lib/libarsdk.so
LOAD /home/zxli/code/parrot-groundsdk/out/olympe-linux/staging/usr/lib/libulog.so
LOAD /home/zxli/code/parrot-groundsdk/out/olympe-linux/staging/usr/lib/libpomp.so
LOAD /home/zxli/code/parrot-groundsdk/out/olympe-linux/staging/usr/lib/libfutils.so
LOAD /home/zxli/code/parrot-groundsdk/out/olympe-linux/staging/usr/lib/libmux.so
LOAD /home/zxli/code/parrot-groundsdk/out/olympe-linux/staging/usr/lib/libpuf.so
LOAD /usr/lib/gcc/x86_64-linux-gnu/7/../../../x86_64-linux-gnu/libavahi-common.so
LOAD /usr/lib/gcc/x86_64-linux-gnu/7/../../../x86_64-linux-gnu/libavahi-client.so
LOAD /home/zxli/code/parrot-groundsdk/out/olympe-linux/staging/usr/lib/libjson-c.so
LOAD /usr/lib/gcc/x86_64-linux-gnu/7/../../../x86_64-linux-gnu/librt.so
LOAD /usr/lib/gcc/x86_64-linux-gnu/7/libstdc++.so
LOAD /usr/lib/gcc/x86_64-linux-gnu/7/../../../x86_64-linux-gnu/libm.so
START GROUP
LOAD /lib/x86_64-linux-gnu/libm.so.6
LOAD /usr/lib/x86_64-linux-gnu/libmvec_nonshared.a
LOAD /lib/x86_64-linux-gnu/libmvec.so.1
END GROUP
LOAD /usr/lib/gcc/x86_64-linux-gnu/7/libgcc_s.so
START GROUP
LOAD /usr/lib/gcc/x86_64-linux-gnu/7/libgcc_s.so.1
LOAD /usr/lib/gcc/x86_64-linux-gnu/7/libgcc.a
END GROUP
LOAD /usr/lib/gcc/x86_64-linux-gnu/7/../../../x86_64-linux-gnu/libpthread.so
START GROUP
LOAD /lib/x86_64-linux-gnu/libpthread.so.0
LOAD /usr/lib/x86_64-linux-gnu/libpthread_nonshared.a
END GROUP
LOAD /usr/lib/gcc/x86_64-linux-gnu/7/../../../x86_64-linux-gnu/libc.so
START GROUP
LOAD /lib/x86_64-linux-gnu/libc.so.6
LOAD /usr/lib/x86_64-linux-gnu/libc_nonshared.a
LOAD /lib/x86_64-linux-gnu/ld-linux-x86-64.so.2
END GROUP
LOAD /usr/lib/gcc/x86_64-linux-gnu/7/libgcc_s.so
START GROUP
LOAD /usr/lib/gcc/x86_64-linux-gnu/7/libgcc_s.so.1
LOAD /usr/lib/gcc/x86_64-linux-gnu/7/libgcc.a
END GROUP
LOAD /usr/lib/gcc/x86_64-linux-gnu/7/crtendS.o
LOAD /usr/lib/gcc/x86_64-linux-gnu/7/../../../x86_64-linux-gnu/crtn.o
                0x00000000000001c8                . = (SEGMENT_START ("text-segment", 0x0) + SIZEOF_HEADERS)

.note.gnu.build-id
                0x00000000000001c8       0x24
 *(.note.gnu.build-id)
 .note.gnu.build-id
                0x00000000000001c8       0x24 /usr/lib/gcc/x86_64-linux-gnu/7/../../../x86_64-linux-gnu/crti.o

.hash
 *(.hash)

.gnu.hash       0x00000000000001f0      0x53c
 *(.gnu.hash)
 .gnu.hash      0x00000000000001f0      0x53c /usr/lib/gcc/x86_64-linux-gnu/7/../../../x86_64-linux-gnu/crti.o

.dynsym         0x0000000000000730     0x1cf8
 *(.dynsym)
 .dynsym        0x0000000000000730     0x1cf8 /usr/lib/gcc/x86_64-linux-gnu/7/../../../x86_64-linux-gnu/crti.o

.dynstr         0x0000000000002428     0x1bb1
 *(.dynstr)
 .dynstr        0x0000000000002428     0x1bb1 /usr/lib/gcc/x86_64-linux-gnu/7/../../../x86_64-linux-gnu/crti.o

.gnu.version    0x0000000000003fda      0x26a
 *(.gnu.version)
 .gnu.version   0x0000000000003fda      0x26a /usr/lib/gcc/x86_64-linux-gnu/7/../../../x86_64-linux-gnu/crti.o

.gnu.version_d  0x0000000000004248        0x0
 *(.gnu.version_d)
 .gnu.version_d
                0x0000000000004248        0x0 /usr/lib/gcc/x86_64-linux-gnu/7/../../../x86_64-linux-gnu/crti.o

.gnu.version_r  0x0000000000004248       0xb0
 *(.gnu.version_r)
 .gnu.version_r
                0x0000000000004248       0xb0 /usr/lib/gcc/x86_64-linux-gnu/7/../../../x86_64-linux-gnu/crti.o

.rela.dyn       0x00000000000042f8      0xb58
 *(.rela.init)
 *(.rela.text .rela.text.* .rela.gnu.linkonce.t.*)
 .rela.text     0x00000000000042f8        0x0 /usr/lib/gcc/x86_64-linux-gnu/7/../../../x86_64-linux-gnu/crti.o
 .rela.text.arsdk_discovery_timer_cb
                0x00000000000042f8        0x0 /usr/lib/gcc/x86_64-linux-gnu/7/../../../x86_64-linux-gnu/crti.o
 .rela.text.arsdk_discovery_start
                0x00000000000042f8        0x0 /usr/lib/gcc/x86_64-linux-gnu/7/../../../x86_64-linux-gnu/crti.o
 .rela.text.arsdk_discovery_stop
                0x00000000000042f8        0x0 /usr/lib/gcc/x86_64-linux-gnu/7/../../../x86_64-linux-gnu/crti.o
 .rela.text.arsdk_discovery_add_device
                0x00000000000042f8        0x0 /usr/lib/gcc/x86_64-linux-gnu/7/../../../x86_64-linux-gnu/crti.o
 .rela.text.arsdk_discovery_remove_device
                0x00000000000042f8        0x0 /usr/lib/gcc/x86_64-linux-gnu/7/../../../x86_64-linux-gnu/crti.o
 .rela.text.arsdk_discovery_destroy
                0x00000000000042f8        0x0 /usr/lib/gcc/x86_64-linux-gnu/7/../../../x86_64-linux-gnu/crti.o
 .rela.text.arsdk_discovery_new
                0x00000000000042f8        0x0 /usr/lib/gcc/x86_64-linux-gnu/7/../../../x86_64-linux-gnu/crti.o
 .rela.text.arsdk_ctrl_new
                0x00000000000042f8        0x0 /usr/lib/gcc/x86_64-linux-gnu/7/../../../x86_64-linux-gnu/crti.o
 .rela.text.arsdk_ctrl_set_device_cbs
                0x00000000000042f8        0x0 /usr/lib/gcc/x86_64-linux-gnu/7/../../../x86_64-linux-gnu/crti.o
 .rela.text.arsdk_ctrl_create_device
                0x00000000000042f8        0x0 /usr/lib/gcc/x86_64-linux-gnu/7/../../../x86_64-linux-gnu/crti.o
 .rela.text.arsdk_ctrl_destroy_device
                0x00000000000042f8        0x0 /usr/lib/gcc/x86_64-linux-gnu/7/../../../x86_64-linux-gnu/crti.o
 .rela.text.arsdk_ctrl_register_backend
                0x00000000000042f8        0x0 /usr/lib/gcc/x86_64-linux-gnu/7/../../../x86_64-linux-gnu/crti.o
 .rela.text.arsdk_ctrl_unregister_backend
                0x00000000000042f8        0x0 /usr/lib/gcc/x86_64-linux-gnu/7/../../../x86_64-linux-gnu/crti.o
 .rela.text.arsdk_ctrl_register_discovery
                0x00000000000042f8        0x0 /usr/lib/gcc/x86_64-linux-gnu/7/../../../x86_64-linux-gnu/crti.o
 .rela.text.arsdk_ctrl_unregister_discovery
                0x00000000000042f8        0x0 /usr/lib/gcc/x86_64-linux-gnu/7/../../../x86_64-linux-gnu/crti.o
 .rela.text.arsdk_ctrl_destroy
                0x00000000000042f8        0x0 /usr/lib/gcc/x86_64-linux-gnu/7/../../../x86_64-linux-gnu/crti.o
 .rela.text.arsdkctrl_backend_new
                0x00000000000042f8        0x0 /usr/lib/gcc/x86_64-linux-gnu/7/../../../x86_64-linux-gnu/crti.o
 .rela.text.arsdkctrl_backend_destroy
                0x00000000000042f8        0x0 /usr/lib/gcc/x86_64-linux-gnu/7/../../../x86_64-linux-gnu/crti.o
 .rela.text.arsdkctrl_backend_set_osdata
                0x00000000000042f8        0x0 /usr/lib/gcc/x86_64-linux-gnu/7/../../../x86_64-linux-gnu/crti.o
 .rela.text.arsdkctrl_backend_start_device_conn
                0x00000000000042f8        0x0 /usr/lib/gcc/x86_64-linux-gnu/7/../../../x86_64-linux-gnu/crti.o
 .rela.text.arsdkctrl_backend_stop_device_conn
                0x00000000000042f8        0x0 /usr/lib/gcc/x86_64-linux-gnu/7/../../../x86_64-linux-gnu/crti.o
 .rela.text.arsdkctrl_backend_socket_cb
                0x00000000000042f8        0x0 /usr/lib/gcc/x86_64-linux-gnu/7/../../../x86_64-linux-gnu/crti.o
 .rela.text.ftp_to_media_status
                0x00000000000042f8        0x0 /usr/lib/gcc/x86_64-linux-gnu/7/../../../x86_64-linux-gnu/crti.o
 .rela.text.ftpget_progress_cb
                0x00000000000042f8        0x0 /usr/lib/gcc/x86_64-linux-gnu/7/../../../x86_64-linux-gnu/crti.o
 .rela.text.req_destroy
                0x00000000000042f8        0x0 /usr/lib/gcc/x86_64-linux-gnu/7/../../../x86_64-linux-gnu/crti.o
 .rela.text.arsdk_media_req_download_destroy
                0x00000000000042f8        0x0 /usr/lib/gcc/x86_64-linux-gnu/7/../../../x86_64-linux-gnu/crti.o
 .rela.text.ftpget_complete_cb
                0x00000000000042f8        0x0 /usr/lib/gcc/x86_64-linux-gnu/7/../../../x86_64-linux-gnu/crti.o
 .rela.text.arsdk_media_res_destroy
                0x00000000000042f8        0x0 /usr/lib/gcc/x86_64-linux-gnu/7/../../../x86_64-linux-gnu/crti.o
 .rela.text.arsdk_media_res_new_from_file
                0x00000000000042f8        0x0 /usr/lib/gcc/x86_64-linux-gnu/7/../../../x86_64-linux-gnu/crti.o
 .rela.text.file_to_media_name
                0x00000000000042f8        0x0 /usr/lib/gcc/x86_64-linux-gnu/7/../../../x86_64-linux-gnu/crti.o
 .rela.text.arsdk_media_req_delete_cancel
                0x00000000000042f8        0x0 /usr/lib/gcc/x86_64-linux-gnu/7/../../../x86_64-linux-gnu/crti.o
 .rela.text.arsdk_media_itf_new
                0x00000000000042f8        0x0 /usr/lib/gcc/x86_64-linux-gnu/7/../../../x86_64-linux-gnu/crti.o
 .rela.text.arsdk_media_ref
                0x00000000000042f8        0x0 /usr/lib/gcc/x86_64-linux-gnu/7/../../../x86_64-linux-gnu/crti.o
 .rela.text.arsdk_media_unref
                0x00000000000042f8        0x0 /usr/lib/gcc/x86_64-linux-gnu/7/../../../x86_64-linux-gnu/crti.o
 .rela.text.arsdk_media_req_delete_destroy
                0x00000000000042f8        0x0 /usr/lib/gcc/x86_64-linux-gnu/7/../../../x86_64-linux-gnu/crti.o
 .rela.text.ftpdel_complete_cb
                0x00000000000042f8        0x0 /usr/lib/gcc/x86_64-linux-gnu/7/../../../x86_64-linux-gnu/crti.o
 .rela.text.arsdk_media_req_list_cancel
                0x00000000000042f8        0x0 /usr/lib/gcc/x86_64-linux-gnu/7/../../../x86_64-linux-gnu/crti.o
 .rela.text.arsdk_media_list_ref
                0x00000000000042f8        0x0 /usr/lib/gcc/x86_64-linux-gnu/7/../../../x86_64-linux-gnu/crti.o
 .rela.text.arsdk_media_list_unref
                0x00000000000042f8        0x0 /usr/lib/gcc/x86_64-linux-gnu/7/../../../x86_64-linux-gnu/crti.o
 .rela.text.arsdk_media_req_list_destroy
                0x00000000000042f8        0x0 /usr/lib/gcc/x86_64-linux-gnu/7/../../../x86_64-linux-gnu/crti.o
 .rela.text.arsdk_media_itf_create_req_list
                0x00000000000042f8        0x0 /usr/lib/gcc/x86_64-linux-gnu/7/../../../x86_64-linux-gnu/crti.o
 .rela.text.pfld_list_complete_cb
                0x00000000000042f8        0x0 /usr/lib/gcc/x86_64-linux-gnu/7/../../../x86_64-linux-gnu/crti.o
 .rela.text.arsdk_media_itf_create_req_download
                0x00000000000042f8        0x0 /usr/lib/gcc/x86_64-linux-gnu/7/../../../x86_64-linux-gnu/crti.o
 .rela.text.arsdk_media_req_download_cancel
                0x00000000000042f8        0x0 /usr/lib/gcc/x86_64-linux-gnu/7/../../../x86_64-linux-gnu/crti.o
 .rela.text.arsdk_media_itf_cancel_all
                0x00000000000042f8        0x0 /usr/lib/gcc/x86_64-linux-gnu/7/../../../x86_64-linux-gnu/crti.o
 .rela.text.arsdk_media_itf_stop
                0x00000000000042f8        0x0 /usr/lib/gcc/x86_64-linux-gnu/7/../../../x86_64-linux-gnu/crti.o
 .rela.text.arsdk_media_itf_destroy
                0x00000000000042f8        0x0 /usr/lib/gcc/x86_64-linux-gnu/7/../../../x86_64-linux-gnu/crti.o
 .rela.text.arsdk_media_itf_create_req_delete
                0x00000000000042f8        0x0 /usr/lib/gcc/x86_64-linux-gnu/7/../../../x86_64-linux-gnu/crti.o
 .rela.text.arsdk_updater_itf_stop
                0x00000000000042f8        0x0 /usr/lib/gcc/x86_64-linux-gnu/7/../../../x86_64-linux-gnu/crti.o
 .rela.text.arsdk_updater_itf_cancel_all
                0x00000000000042f8        0x0 /usr/lib/gcc/x86_64-linux-gnu/7/../../../x86_64-linux-gnu/crti.o
 .rela.text.arsdk_updater_itf_destroy
                0x00000000000042f8        0x0 /usr/lib/gcc/x86_64-linux-gnu/7/../../../x86_64-linux-gnu/crti.o
 .rela.text.arsdk_updater_itf_new
                0x00000000000042f8        0x0 /usr/lib/gcc/x86_64-linux-gnu/7/../../../x86_64-linux-gnu/crti.o
 .rela.text.arsdk_updater_itf_create_req_upload
                0x00000000000042f8        0x0 /usr/lib/gcc/x86_64-linux-gnu/7/../../../x86_64-linux-gnu/crti.o
 .rela.text.arsdk_updater_req_upload_cancel
                0x00000000000042f8        0x0 /usr/lib/gcc/x86_64-linux-gnu/7/../../../x86_64-linux-gnu/crti.o
 .rela.text.arsdk_updater_read_fw_info
                0x00000000000042f8        0x0 /usr/lib/gcc/x86_64-linux-gnu/7/../../../x86_64-linux-gnu/crti.o
 .rela.text.arsdk_updater_new_req_upload
                0x00000000000042f8        0x0 /usr/lib/gcc/x86_64-linux-gnu/7/../../../x86_64-linux-gnu/crti.o
 .rela.text.arsdk_updater_destroy_req_upload
                0x00000000000042f8        0x0 /usr/lib/gcc/x86_64-linux-gnu/7/../../../x86_64-linux-gnu/crti.o
 .rela.text.blackbox_mux_channel_cb
                0x00000000000042f8        0x0 /usr/lib/gcc/x86_64-linux-gnu/7/../../../x86_64-linux-gnu/crti.o
 .rela.text.arsdk_blackbox_itf_create_listener
                0x00000000000042f8        0x0 /usr/lib/gcc/x86_64-linux-gnu/7/../../../x86_64-linux-gnu/crti.o
 .rela.text.arsdk_blackbox_listener_unregister
                0x00000000000042f8        0x0 /usr/lib/gcc/x86_64-linux-gnu/7/../../../x86_64-linux-gnu/crti.o
 .rela.text.arsdk_blackbox_itf_stop
                0x00000000000042f8        0x0 /usr/lib/gcc/x86_64-linux-gnu/7/../../../x86_64-linux-gnu/crti.o
 .rela.text.arsdk_blackbox_itf_destroy
                0x00000000000042f8        0x0 /usr/lib/gcc/x86_64-linux-gnu/7/../../../x86_64-linux-gnu/crti.o
 .rela.text.arsdk_blackbox_itf_new
                0x00000000000042f8        0x0 /usr/lib/gcc/x86_64-linux-gnu/7/../../../x86_64-linux-gnu/crti.o
 .rela.text.clean_local_dir
                0x00000000000042f8        0x0 /usr/lib/gcc/x86_64-linux-gnu/7/../../../x86_64-linux-gnu/crti.o
 .rela.text.ftp_get_file
                0x00000000000042f8        0x0 /usr/lib/gcc/x86_64-linux-gnu/7/../../../x86_64-linux-gnu/crti.o
 .rela.text.ftp_del_file
                0x00000000000042f8        0x0 /usr/lib/gcc/x86_64-linux-gnu/7/../../../x86_64-linux-gnu/crti.o
 .rela.text.ftp_to_crashml_status
                0x00000000000042f8        0x0 /usr/lib/gcc/x86_64-linux-gnu/7/../../../x86_64-linux-gnu/crti.o
 .rela.text.unlink_cb
                0x00000000000042f8        0x0 /usr/lib/gcc/x86_64-linux-gnu/7/../../../x86_64-linux-gnu/crti.o
 .rela.text.simple_req_delete
                0x00000000000042f8        0x0 /usr/lib/gcc/x86_64-linux-gnu/7/../../../x86_64-linux-gnu/crti.o
 .rela.text.simple_req_new
                0x00000000000042f8        0x0 /usr/lib/gcc/x86_64-linux-gnu/7/../../../x86_64-linux-gnu/crti.o
 .rela.text.arsdk_crashml_req_delete
                0x00000000000042f8        0x0 /usr/lib/gcc/x86_64-linux-gnu/7/../../../x86_64-linux-gnu/crti.o
 .rela.text.req_done
                0x00000000000042f8        0x0 /usr/lib/gcc/x86_64-linux-gnu/7/../../../x86_64-linux-gnu/crti.o
 .rela.text.curr_req_done.isra.6
                0x00000000000042f8        0x0 /usr/lib/gcc/x86_64-linux-gnu/7/../../../x86_64-linux-gnu/crti.o
 .rela.text.req_start_next
                0x00000000000042f8        0x0 /usr/lib/gcc/x86_64-linux-gnu/7/../../../x86_64-linux-gnu/crti.o
 .rela.text.main_dir_list_complete_cb
                0x00000000000042f8        0x0 /usr/lib/gcc/x86_64-linux-gnu/7/../../../x86_64-linux-gnu/crti.o
 .rela.text.ftp_single_list_complete_cb
                0x00000000000042f8        0x0 /usr/lib/gcc/x86_64-linux-gnu/7/../../../x86_64-linux-gnu/crti.o
 .rela.text.ftp_get_complete_cb
                0x00000000000042f8        0x0 /usr/lib/gcc/x86_64-linux-gnu/7/../../../x86_64-linux-gnu/crti.o
 .rela.text.ftp_del_file_complete
                0x00000000000042f8        0x0 /usr/lib/gcc/x86_64-linux-gnu/7/../../../x86_64-linux-gnu/crti.o
 .rela.text.ftp_del_dir_complete
                0x00000000000042f8        0x0 /usr/lib/gcc/x86_64-linux-gnu/7/../../../x86_64-linux-gnu/crti.o
 .rela.text.arsdk_crashml_itf_new
                0x00000000000042f8        0x0 /usr/lib/gcc/x86_64-linux-gnu/7/../../../x86_64-linux-gnu/crti.o
 .rela.text.arsdk_crashml_itf_create_req
                0x00000000000042f8        0x0 /usr/lib/gcc/x86_64-linux-gnu/7/../../../x86_64-linux-gnu/crti.o
 .rela.text.arsdk_crashml_req_cancel
                0x00000000000042f8        0x0 /usr/lib/gcc/x86_64-linux-gnu/7/../../../x86_64-linux-gnu/crti.o
 .rela.text.arsdk_crashml_itf_stop
                0x00000000000042f8        0x0 /usr/lib/gcc/x86_64-linux-gnu/7/../../../x86_64-linux-gnu/crti.o
 .rela.text.arsdk_crashml_itf_destroy
                0x00000000000042f8        0x0 /usr/lib/gcc/x86_64-linux-gnu/7/../../../x86_64-linux-gnu/crti.o
 .rela.text.arsdk_crashml_itf_cancel_all
                0x00000000000042f8        0x0 /usr/lib/gcc/x86_64-linux-gnu/7/../../../x86_64-linux-gnu/crti.o
 .rela.text.ftp_to_flight_log_status
                0x00000000000042f8        0x0 /usr/lib/gcc/x86_64-linux-gnu/7/../../../x86_64-linux-gnu/crti.o
 .rela.text.arsdk_flight_log_req_delete
                0x00000000000042f8        0x0 /usr/lib/gcc/x86_64-linux-gnu/7/../../../x86_64-linux-gnu/crti.o
 .rela.text.main_log_list_complete_cb
                0x00000000000042f8        0x0 /usr/lib/gcc/x86_64-linux-gnu/7/../../../x86_64-linux-gnu/crti.o
 .rela.text.ftp_del_complete
                0x00000000000042f8        0x0 /usr/lib/gcc/x86_64-linux-gnu/7/../../../x86_64-linux-gnu/crti.o
 .rela.text.arsdk_flight_log_itf_new
                0x00000000000042f8        0x0 /usr/lib/gcc/x86_64-linux-gnu/7/../../../x86_64-linux-gnu/crti.o
 .rela.text.arsdk_flight_log_itf_create_req
                0x00000000000042f8        0x0 /usr/lib/gcc/x86_64-linux-gnu/7/../../../x86_64-linux-gnu/crti.o
 .rela.text.arsdk_flight_log_req_cancel
                0x00000000000042f8        0x0 /usr/lib/gcc/x86_64-linux-gnu/7/../../../x86_64-linux-gnu/crti.o
 .rela.text.arsdk_flight_log_itf_stop
                0x00000000000042f8        0x0 /usr/lib/gcc/x86_64-linux-gnu/7/../../../x86_64-linux-gnu/crti.o
 .rela.text.arsdk_flight_log_itf_destroy
                0x00000000000042f8        0x0 /usr/lib/gcc/x86_64-linux-gnu/7/../../../x86_64-linux-gnu/crti.o
 .rela.text.arsdk_flight_log_itf_cancel_all
                0x00000000000042f8        0x0 /usr/lib/gcc/x86_64-linux-gnu/7/../../../x86_64-linux-gnu/crti.o
 .rela.text.ftp_to_pud_status
                0x00000000000042f8        0x0 /usr/lib/gcc/x86_64-linux-gnu/7/../../../x86_64-linux-gnu/crti.o
 .rela.text.is_pud_file
                0x00000000000042f8        0x0 /usr/lib/gcc/x86_64-linux-gnu/7/../../../x86_64-linux-gnu/crti.o
 .rela.text.arsdk_pud_req_delete
                0x00000000000042f8        0x0 /usr/lib/gcc/x86_64-linux-gnu/7/../../../x86_64-linux-gnu/crti.o
 .rela.text.puds_dir_list_complete_cb
                0x00000000000042f8        0x0 /usr/lib/gcc/x86_64-linux-gnu/7/../../../x86_64-linux-gnu/crti.o
 .rela.text.arsdk_pud_itf_new
                0x00000000000042f8        0x0 /usr/lib/gcc/x86_64-linux-gnu/7/../../../x86_64-linux-gnu/crti.o
 .rela.text.arsdk_pud_itf_create_req
                0x00000000000042f8        0x0 /usr/lib/gcc/x86_64-linux-gnu/7/../../../x86_64-linux-gnu/crti.o
 .rela.text.arsdk_pud_req_cancel
                0x00000000000042f8        0x0 /usr/lib/gcc/x86_64-linux-gnu/7/../../../x86_64-linux-gnu/crti.o
 .rela.text.arsdk_pud_itf_stop
                0x00000000000042f8        0x0 /usr/lib/gcc/x86_64-linux-gnu/7/../../../x86_64-linux-gnu/crti.o
 .rela.text.arsdk_pud_itf_destroy
                0x00000000000042f8        0x0 /usr/lib/gcc/x86_64-linux-gnu/7/../../../x86_64-linux-gnu/crti.o
 .rela.text.arsdk_pud_itf_cancel_all
                0x00000000000042f8        0x0 /usr/lib/gcc/x86_64-linux-gnu/7/../../../x86_64-linux-gnu/crti.o
 .rela.text.ftp_to_ephemeris_status
                0x00000000000042f8        0x0 /usr/lib/gcc/x86_64-linux-gnu/7/../../../x86_64-linux-gnu/crti.o
 .rela.text.put_progress
                0x00000000000042f8        0x0 /usr/lib/gcc/x86_64-linux-gnu/7/../../../x86_64-linux-gnu/crti.o
 .rela.text.arsdk_ephemeris_destroy_req_upload
                0x00000000000042f8        0x0 /usr/lib/gcc/x86_64-linux-gnu/7/../../../x86_64-linux-gnu/crti.o
 .rela.text.md5_get_complete
                0x00000000000042f8        0x0 /usr/lib/gcc/x86_64-linux-gnu/7/../../../x86_64-linux-gnu/crti.o
 .rela.text.put_complete
                0x00000000000042f8        0x0 /usr/lib/gcc/x86_64-linux-gnu/7/../../../x86_64-linux-gnu/crti.o
 .rela.text.arsdk_ephemeris_itf_new
                0x00000000000042f8        0x0 /usr/lib/gcc/x86_64-linux-gnu/7/../../../x86_64-linux-gnu/crti.o
 .rela.text.arsdk_ephemeris_itf_create_req_upload
                0x00000000000042f8        0x0 /usr/lib/gcc/x86_64-linux-gnu/7/../../../x86_64-linux-gnu/crti.o
 .rela.text.arsdk_ephemeris_req_upload_cancel
                0x00000000000042f8        0x0 /usr/lib/gcc/x86_64-linux-gnu/7/../../../x86_64-linux-gnu/crti.o
 .rela.text.arsdk_ephemeris_itf_stop
                0x00000000000042f8        0x0 /usr/lib/gcc/x86_64-linux-gnu/7/../../../x86_64-linux-gnu/crti.o
 .rela.text.arsdk_ephemeris_itf_destroy
                0x00000000000042f8        0x0 /usr/lib/gcc/x86_64-linux-gnu/7/../../../x86_64-linux-gnu/crti.o
 .rela.text.arsdk_ephemeris_itf_cancel_all
                0x00000000000042f8        0x0 /usr/lib/gcc/x86_64-linux-gnu/7/../../../x86_64-linux-gnu/crti.o
 .rela.text.arsdk_md5_compute
                0x00000000000042f8        0x0 /usr/lib/gcc/x86_64-linux-gnu/7/../../../x86_64-linux-gnu/crti.o
 .rela.text.arsdk_updater_transport_new
                0x00000000000042f8        0x0 /usr/lib/gcc/x86_64-linux-gnu/7/../../../x86_64-linux-gnu/crti.o
 .rela.text.arsdk_updater_transport_stop
                0x00000000000042f8        0x0 /usr/lib/gcc/x86_64-linux-gnu/7/../../../x86_64-linux-gnu/crti.o
 .rela.text.arsdk_updater_transport_destroy
                0x00000000000042f8        0x0 /usr/lib/gcc/x86_64-linux-gnu/7/../../../x86_64-linux-gnu/crti.o
 .rela.text.arsdk_updater_transport_create_req_upload
                0x00000000000042f8        0x0 /usr/lib/gcc/x86_64-linux-gnu/7/../../../x86_64-linux-gnu/crti.o
 .rela.text.arsdk_updater_transport_req_upload_cancel
                0x00000000000042f8        0x0 /usr/lib/gcc/x86_64-linux-gnu/7/../../../x86_64-linux-gnu/crti.o
 .rela.text.update_put_progress_cb
                0x00000000000042f8        0x0 /usr/lib/gcc/x86_64-linux-gnu/7/../../../x86_64-linux-gnu/crti.o
 .rela.text.ftp_to_updater_status
                0x00000000000042f8        0x0 /usr/lib/gcc/x86_64-linux-gnu/7/../../../x86_64-linux-gnu/crti.o
 .rela.text.arsdk_updater_req_upload_destroy
                0x00000000000042f8        0x0 /usr/lib/gcc/x86_64-linux-gnu/7/../../../x86_64-linux-gnu/crti.o
 .rela.text.update_upload_complete
                0x00000000000042f8        0x0 /usr/lib/gcc/x86_64-linux-gnu/7/../../../x86_64-linux-gnu/crti.o
 .rela.text.update_rename_complete_cb
                0x00000000000042f8        0x0 /usr/lib/gcc/x86_64-linux-gnu/7/../../../x86_64-linux-gnu/crti.o
 .rela.text.arsdk_updater_transport_ftp_new
                0x00000000000042f8        0x0 /usr/lib/gcc/x86_64-linux-gnu/7/../../../x86_64-linux-gnu/crti.o
 .rela.text.arsdk_updater_ftp_req_upload_cancel
                0x00000000000042f8        0x0 /usr/lib/gcc/x86_64-linux-gnu/7/../../../x86_64-linux-gnu/crti.o
 .rela.text.cancel_req_upload_cb
                0x00000000000042f8        0x0 /usr/lib/gcc/x86_64-linux-gnu/7/../../../x86_64-linux-gnu/crti.o
 .rela.text.arsdk_updater_transport_ftp_stop
                0x00000000000042f8        0x0 /usr/lib/gcc/x86_64-linux-gnu/7/../../../x86_64-linux-gnu/crti.o
 .rela.text.stop_cb
                0x00000000000042f8        0x0 /usr/lib/gcc/x86_64-linux-gnu/7/../../../x86_64-linux-gnu/crti.o
 .rela.text.arsdk_updater_transport_ftp_destroy
                0x00000000000042f8        0x0 /usr/lib/gcc/x86_64-linux-gnu/7/../../../x86_64-linux-gnu/crti.o
 .rela.text.arsdk_updater_transport_ftp_cancel_all
                0x00000000000042f8        0x0 /usr/lib/gcc/x86_64-linux-gnu/7/../../../x86_64-linux-gnu/crti.o
 .rela.text.cancel_all_cb
                0x00000000000042f8        0x0 /usr/lib/gcc/x86_64-linux-gnu/7/../../../x86_64-linux-gnu/crti.o
 .rela.text.update_put_complete_cb
                0x00000000000042f8        0x0 /usr/lib/gcc/x86_64-linux-gnu/7/../../../x86_64-linux-gnu/crti.o
 .rela.text.arsdk_updater_transport_ftp_create_req_upload
                0x00000000000042f8        0x0 /usr/lib/gcc/x86_64-linux-gnu/7/../../../x86_64-linux-gnu/crti.o
 .rela.text.create_req_upload_cb
                0x00000000000042f8        0x0 /usr/lib/gcc/x86_64-linux-gnu/7/../../../x86_64-linux-gnu/crti.o
 .rela.text.updater_mux_write_msg
                0x00000000000042f8        0x0 /usr/lib/gcc/x86_64-linux-gnu/7/../../../x86_64-linux-gnu/crti.o
 .rela.text.updater_mux_send_next_chunk
                0x00000000000042f8        0x0 /usr/lib/gcc/x86_64-linux-gnu/7/../../../x86_64-linux-gnu/crti.o
 .rela.text.update_mux_notify_status
                0x00000000000042f8        0x0 /usr/lib/gcc/x86_64-linux-gnu/7/../../../x86_64-linux-gnu/crti.o
 .rela.text.update_mux_channel_cb
                0x00000000000042f8        0x0 /usr/lib/gcc/x86_64-linux-gnu/7/../../../x86_64-linux-gnu/crti.o
 .rela.text.arsdk_updater_transport_mux_new
                0x00000000000042f8        0x0 /usr/lib/gcc/x86_64-linux-gnu/7/../../../x86_64-linux-gnu/crti.o
 .rela.text.arsdk_updater_mux_req_upload_cancel
                0x00000000000042f8        0x0 /usr/lib/gcc/x86_64-linux-gnu/7/../../../x86_64-linux-gnu/crti.o
 .rela.text.arsdk_updater_transport_mux_stop
                0x00000000000042f8        0x0 /usr/lib/gcc/x86_64-linux-gnu/7/../../../x86_64-linux-gnu/crti.o
 .rela.text.arsdk_updater_transport_mux_destroy
                0x00000000000042f8        0x0 /usr/lib/gcc/x86_64-linux-gnu/7/../../../x86_64-linux-gnu/crti.o
 .rela.text.arsdk_updater_transport_mux_cancel_all
                0x00000000000042f8        0x0 /usr/lib/gcc/x86_64-linux-gnu/7/../../../x86_64-linux-gnu/crti.o
 .rela.text.arsdk_updater_transport_mux_create_req_upload
                0x00000000000042f8        0x0 /usr/lib/gcc/x86_64-linux-gnu/7/../../../x86_64-linux-gnu/crti.o
 .rela.text.req_get_write_data
                0x00000000000042f8        0x0 /usr/lib/gcc/x86_64-linux-gnu/7/../../../x86_64-linux-gnu/crti.o
 .rela.text.req_list_write_data
                0x00000000000042f8        0x0 /usr/lib/gcc/x86_64-linux-gnu/7/../../../x86_64-linux-gnu/crti.o
 .rela.text.req_get_progress
                0x00000000000042f8        0x0 /usr/lib/gcc/x86_64-linux-gnu/7/../../../x86_64-linux-gnu/crti.o
 .rela.text.req_new
                0x00000000000042f8        0x0 /usr/lib/gcc/x86_64-linux-gnu/7/../../../x86_64-linux-gnu/crti.o
 .rela.text.size_complete
                0x00000000000042f8        0x0 /usr/lib/gcc/x86_64-linux-gnu/7/../../../x86_64-linux-gnu/crti.o
 .rela.text.socket_cb
                0x00000000000042f8        0x0 /usr/lib/gcc/x86_64-linux-gnu/7/../../../x86_64-linux-gnu/crti.o
 .rela.text.req_complete_cb
                0x00000000000042f8        0x0 /usr/lib/gcc/x86_64-linux-gnu/7/../../../x86_64-linux-gnu/crti.o
 .rela.text.mux_proxy_close_cb
                0x00000000000042f8        0x0 /usr/lib/gcc/x86_64-linux-gnu/7/../../../x86_64-linux-gnu/crti.o
 .rela.text.mux_proxy_open_cb
                0x00000000000042f8        0x0 /usr/lib/gcc/x86_64-linux-gnu/7/../../../x86_64-linux-gnu/crti.o
 .rela.text.arsdk_ftp_req_delete_destroy
                0x00000000000042f8        0x0 /usr/lib/gcc/x86_64-linux-gnu/7/../../../x86_64-linux-gnu/crti.o
 .rela.text.arsdk_ftp_req_rename_destroy
                0x00000000000042f8        0x0 /usr/lib/gcc/x86_64-linux-gnu/7/../../../x86_64-linux-gnu/crti.o
 .rela.text.arsdk_ftp_req_get_destroy
                0x00000000000042f8        0x0 /usr/lib/gcc/x86_64-linux-gnu/7/../../../x86_64-linux-gnu/crti.o
 .rela.text.arsdk_ftp_req_put_destroy
                0x00000000000042f8        0x0 /usr/lib/gcc/x86_64-linux-gnu/7/../../../x86_64-linux-gnu/crti.o
 .rela.text.create_req_put
                0x00000000000042f8        0x0 /usr/lib/gcc/x86_64-linux-gnu/7/../../../x86_64-linux-gnu/crti.o
 .rela.text.req_put_read_data
                0x00000000000042f8        0x0 /usr/lib/gcc/x86_64-linux-gnu/7/../../../x86_64-linux-gnu/crti.o
 .rela.text.arsdk_ftp_itf_stop
                0x00000000000042f8        0x0 /usr/lib/gcc/x86_64-linux-gnu/7/../../../x86_64-linux-gnu/crti.o
 .rela.text.arsdk_ftp_itf_destroy
                0x00000000000042f8        0x0 /usr/lib/gcc/x86_64-linux-gnu/7/../../../x86_64-linux-gnu/crti.o
 .rela.text.arsdk_ftp_itf_new
                0x00000000000042f8        0x0 /usr/lib/gcc/x86_64-linux-gnu/7/../../../x86_64-linux-gnu/crti.o
 .rela.text.arsdk_ftp_itf_cancel_all
                0x00000000000042f8        0x0 /usr/lib/gcc/x86_64-linux-gnu/7/../../../x86_64-linux-gnu/crti.o
 .rela.text.arsdk_ftp_itf_create_req_get
                0x00000000000042f8        0x0 /usr/lib/gcc/x86_64-linux-gnu/7/../../../x86_64-linux-gnu/crti.o
 .rela.text.arsdk_ftp_req_get_cancel
                0x00000000000042f8        0x0 /usr/lib/gcc/x86_64-linux-gnu/7/../../../x86_64-linux-gnu/crti.o
 .rela.text.arsdk_ftp_req_put_cancel
                0x00000000000042f8        0x0 /usr/lib/gcc/x86_64-linux-gnu/7/../../../x86_64-linux-gnu/crti.o
 .rela.text.arsdk_ftp_itf_create_req_delete
                0x00000000000042f8        0x0 /usr/lib/gcc/x86_64-linux-gnu/7/../../../x86_64-linux-gnu/crti.o
 .rela.text.arsdk_ftp_req_delete_cancel
                0x00000000000042f8        0x0 /usr/lib/gcc/x86_64-linux-gnu/7/../../../x86_64-linux-gnu/crti.o
 .rela.text.arsdk_ftp_itf_create_req_rename
                0x00000000000042f8        0x0 /usr/lib/gcc/x86_64-linux-gnu/7/../../../x86_64-linux-gnu/crti.o
 .rela.text.arsdk_ftp_req_rename_cancel
                0x00000000000042f8        0x0 /usr/lib/gcc/x86_64-linux-gnu/7/../../../x86_64-linux-gnu/crti.o
 .rela.text.arsdk_ftp_file_new
                0x00000000000042f8        0x0 /usr/lib/gcc/x86_64-linux-gnu/7/../../../x86_64-linux-gnu/crti.o
 .rela.text.arsdk_ftp_file_destroy
                0x00000000000042f8        0x0 /usr/lib/gcc/x86_64-linux-gnu/7/../../../x86_64-linux-gnu/crti.o
 .rela.text.arsdk_ftp_file_set_name
                0x00000000000042f8        0x0 /usr/lib/gcc/x86_64-linux-gnu/7/../../../x86_64-linux-gnu/crti.o
 .rela.text.arsdk_ftp_req_list_cancel
                0x00000000000042f8        0x0 /usr/lib/gcc/x86_64-linux-gnu/7/../../../x86_64-linux-gnu/crti.o
 .rela.text.arsdk_ftp_file_list_ref
                0x00000000000042f8        0x0 /usr/lib/gcc/x86_64-linux-gnu/7/../../../x86_64-linux-gnu/crti.o
 .rela.text.arsdk_ftp_file_ref
                0x00000000000042f8        0x0 /usr/lib/gcc/x86_64-linux-gnu/7/../../../x86_64-linux-gnu/crti.o
 .rela.text.arsdk_ftp_file_unref
                0x00000000000042f8        0x0 /usr/lib/gcc/x86_64-linux-gnu/7/../../../x86_64-linux-gnu/crti.o
 .rela.text.req_list_complete
                0x00000000000042f8        0x0 /usr/lib/gcc/x86_64-linux-gnu/7/../../../x86_64-linux-gnu/crti.o
 .rela.text.arsdk_ftp_file_list_unref
                0x00000000000042f8        0x0 /usr/lib/gcc/x86_64-linux-gnu/7/../../../x86_64-linux-gnu/crti.o
 .rela.text.arsdk_ftp_req_list_destroy
                0x00000000000042f8        0x0 /usr/lib/gcc/x86_64-linux-gnu/7/../../../x86_64-linux-gnu/crti.o
 .rela.text.arsdk_ftp_itf_create_req_list
                0x00000000000042f8        0x0 /usr/lib/gcc/x86_64-linux-gnu/7/../../../x86_64-linux-gnu/crti.o
 .rela.text.connected
                0x00000000000042f8        0x0 /usr/lib/gcc/x86_64-linux-gnu/7/../../../x86_64-linux-gnu/crti.o
 .rela.text.cmd_itf_dispose
                0x00000000000042f8        0x0 /usr/lib/gcc/x86_64-linux-gnu/7/../../../x86_64-linux-gnu/crti.o
 .rela.text.ftp_itf_dispose
                0x00000000000042f8        0x0 /usr/lib/gcc/x86_64-linux-gnu/7/../../../x86_64-linux-gnu/crti.o
 .rela.text.tcp_proxy_open_idle_cb
                0x00000000000042f8        0x0 /usr/lib/gcc/x86_64-linux-gnu/7/../../../x86_64-linux-gnu/crti.o
 .rela.text.mux_proxy_resolution_failed_cb
                0x00000000000042f8        0x0 /usr/lib/gcc/x86_64-linux-gnu/7/../../../x86_64-linux-gnu/crti.o
 .rela.text.recv_data
                0x00000000000042f8        0x0 /usr/lib/gcc/x86_64-linux-gnu/7/../../../x86_64-linux-gnu/crti.o
 .rela.text.ftp_itf_socket_cb
                0x00000000000042f8        0x0 /usr/lib/gcc/x86_64-linux-gnu/7/../../../x86_64-linux-gnu/crti.o
 .rela.text.arsdk_device_destroy
                0x00000000000042f8        0x0 /usr/lib/gcc/x86_64-linux-gnu/7/../../../x86_64-linux-gnu/crti.o
 .rela.text.arsdk_device_new
                0x00000000000042f8        0x0 /usr/lib/gcc/x86_64-linux-gnu/7/../../../x86_64-linux-gnu/crti.o
 .rela.text.arsdk_device_clear_discovery
                0x00000000000042f8        0x0 /usr/lib/gcc/x86_64-linux-gnu/7/../../../x86_64-linux-gnu/crti.o
 .rela.text.arsdk_device_set_osdata
                0x00000000000042f8        0x0 /usr/lib/gcc/x86_64-linux-gnu/7/../../../x86_64-linux-gnu/crti.o
 .rela.text.arsdk_device_get_info
                0x00000000000042f8        0x0 /usr/lib/gcc/x86_64-linux-gnu/7/../../../x86_64-linux-gnu/crti.o
 .rela.text.arsdk_device_set_discovery_runid
                0x00000000000042f8        0x0 /usr/lib/gcc/x86_64-linux-gnu/7/../../../x86_64-linux-gnu/crti.o
 .rela.text.arsdk_device_connect
                0x00000000000042f8        0x0 /usr/lib/gcc/x86_64-linux-gnu/7/../../../x86_64-linux-gnu/crti.o
 .rela.text.arsdk_device_disconnect
                0x00000000000042f8        0x0 /usr/lib/gcc/x86_64-linux-gnu/7/../../../x86_64-linux-gnu/crti.o
 .rela.text.arsdk_device_create_cmd_itf
                0x00000000000042f8        0x0 /usr/lib/gcc/x86_64-linux-gnu/7/../../../x86_64-linux-gnu/crti.o
 .rela.text.arsdk_device_get_ftp_itf
                0x00000000000042f8        0x0 /usr/lib/gcc/x86_64-linux-gnu/7/../../../x86_64-linux-gnu/crti.o
 .rela.text.arsdk_device_get_media_itf
                0x00000000000042f8        0x0 /usr/lib/gcc/x86_64-linux-gnu/7/../../../x86_64-linux-gnu/crti.o
 .rela.text.arsdk_device_get_updater_itf
                0x00000000000042f8        0x0 /usr/lib/gcc/x86_64-linux-gnu/7/../../../x86_64-linux-gnu/crti.o
 .rela.text.arsdk_device_get_blackbox_itf
                0x00000000000042f8        0x0 /usr/lib/gcc/x86_64-linux-gnu/7/../../../x86_64-linux-gnu/crti.o
 .rela.text.arsdk_device_get_crashml_itf
                0x00000000000042f8        0x0 /usr/lib/gcc/x86_64-linux-gnu/7/../../../x86_64-linux-gnu/crti.o
 .rela.text.arsdk_device_get_flight_log_itf
                0x00000000000042f8        0x0 /usr/lib/gcc/x86_64-linux-gnu/7/../../../x86_64-linux-gnu/crti.o
 .rela.text.arsdk_device_get_pud_itf
                0x00000000000042f8        0x0 /usr/lib/gcc/x86_64-linux-gnu/7/../../../x86_64-linux-gnu/crti.o
 .rela.text.arsdk_device_get_ephemeris_itf
                0x00000000000042f8        0x0 /usr/lib/gcc/x86_64-linux-gnu/7/../../../x86_64-linux-gnu/crti.o
 .rela.text.arsdk_device_destroy_tcp_proxy
                0x00000000000042f8        0x0 /usr/lib/gcc/x86_64-linux-gnu/7/../../../x86_64-linux-gnu/crti.o
 .rela.text.arsdk_device_create_tcp_proxy
                0x00000000000042f8        0x0 /usr/lib/gcc/x86_64-linux-gnu/7/../../../x86_64-linux-gnu/crti.o
 .rela.text.device_conn_destroy
                0x00000000000042f8        0x0 /usr/lib/gcc/x86_64-linux-gnu/7/../../../x86_64-linux-gnu/crti.o
 .rela.text.arsdkctrl_backend_net_stop_device_conn
                0x00000000000042f8        0x0 /usr/lib/gcc/x86_64-linux-gnu/7/../../../x86_64-linux-gnu/crti.o
 .rela.text.arsdkctrl_backend_net_socket_cb
                0x00000000000042f8        0x0 /usr/lib/gcc/x86_64-linux-gnu/7/../../../x86_64-linux-gnu/crti.o
 .rela.text.backend_ctrl_net_socket_cb
                0x00000000000042f8        0x0 /usr/lib/gcc/x86_64-linux-gnu/7/../../../x86_64-linux-gnu/crti.o
 .rela.text.device_conn_pomp_socket_cb
                0x00000000000042f8        0x0 /usr/lib/gcc/x86_64-linux-gnu/7/../../../x86_64-linux-gnu/crti.o
 .rela.text.arsdkctrl_backend_net_start_device_conn
                0x00000000000042f8        0x0 /usr/lib/gcc/x86_64-linux-gnu/7/../../../x86_64-linux-gnu/crti.o
 .rela.text.device_conn_event_cb
                0x00000000000042f8        0x0 /usr/lib/gcc/x86_64-linux-gnu/7/../../../x86_64-linux-gnu/crti.o
 .rela.text.device_conn_raw_cb
                0x00000000000042f8        0x0 /usr/lib/gcc/x86_64-linux-gnu/7/../../../x86_64-linux-gnu/crti.o
 .rela.text.arsdkctrl_backend_net_new
                0x00000000000042f8        0x0 /usr/lib/gcc/x86_64-linux-gnu/7/../../../x86_64-linux-gnu/crti.o
 .rela.text.arsdkctrl_backend_net_destroy
                0x00000000000042f8        0x0 /usr/lib/gcc/x86_64-linux-gnu/7/../../../x86_64-linux-gnu/crti.o
 .rela.text.arsdkctrl_backend_net_set_socket_cb
                0x00000000000042f8        0x0 /usr/lib/gcc/x86_64-linux-gnu/7/../../../x86_64-linux-gnu/crti.o
 .rela.text.timeout_update
                0x00000000000042f8        0x0 /usr/lib/gcc/x86_64-linux-gnu/7/../../../x86_64-linux-gnu/crti.o
 .rela.text.timeout_new
                0x00000000000042f8        0x0 /usr/lib/gcc/x86_64-linux-gnu/7/../../../x86_64-linux-gnu/crti.o
 .rela.text.watch_update
                0x00000000000042f8        0x0 /usr/lib/gcc/x86_64-linux-gnu/7/../../../x86_64-linux-gnu/crti.o
 .rela.text.watch_new
                0x00000000000042f8        0x0 /usr/lib/gcc/x86_64-linux-gnu/7/../../../x86_64-linux-gnu/crti.o
 .rela.text.arsdk_avahi_loop_new
                0x00000000000042f8        0x0 /usr/lib/gcc/x86_64-linux-gnu/7/../../../x86_64-linux-gnu/crti.o
 .rela.text.arsdk_avahi_loop_destroy
                0x00000000000042f8        0x0 /usr/lib/gcc/x86_64-linux-gnu/7/../../../x86_64-linux-gnu/crti.o
 .rela.text.avahi_client_cb
                0x00000000000042f8        0x0 /usr/lib/gcc/x86_64-linux-gnu/7/../../../x86_64-linux-gnu/crti.o
 .rela.text.avahi_browser_clean
                0x00000000000042f8        0x0 /usr/lib/gcc/x86_64-linux-gnu/7/../../../x86_64-linux-gnu/crti.o
 .rela.text.avahi_service_resolver_cb
                0x00000000000042f8        0x0 /usr/lib/gcc/x86_64-linux-gnu/7/../../../x86_64-linux-gnu/crti.o
 .rela.text.avahi_service_browser_cb
                0x00000000000042f8        0x0 /usr/lib/gcc/x86_64-linux-gnu/7/../../../x86_64-linux-gnu/crti.o
 .rela.text.arsdk_discovery_avahi_destroy
                0x00000000000042f8        0x0 /usr/lib/gcc/x86_64-linux-gnu/7/../../../x86_64-linux-gnu/crti.o
 .rela.text.arsdk_discovery_avahi_new
                0x00000000000042f8        0x0 /usr/lib/gcc/x86_64-linux-gnu/7/../../../x86_64-linux-gnu/crti.o
 .rela.text.arsdk_discovery_avahi_start
                0x00000000000042f8        0x0 /usr/lib/gcc/x86_64-linux-gnu/7/../../../x86_64-linux-gnu/crti.o
 .rela.text.arsdk_discovery_avahi_stop
                0x00000000000042f8        0x0 /usr/lib/gcc/x86_64-linux-gnu/7/../../../x86_64-linux-gnu/crti.o
 .rela.text.raw_cb
                0x00000000000042f8        0x0 /usr/lib/gcc/x86_64-linux-gnu/7/../../../x86_64-linux-gnu/crti.o
 .rela.text.arsdk_discovery_net_destroy
                0x00000000000042f8        0x0 /usr/lib/gcc/x86_64-linux-gnu/7/../../../x86_64-linux-gnu/crti.o
 .rela.text.arsdk_discovery_net_new_with_port
                0x00000000000042f8        0x0 /usr/lib/gcc/x86_64-linux-gnu/7/../../../x86_64-linux-gnu/crti.o
 .rela.text.arsdk_discovery_net_stop
                0x00000000000042f8        0x0 /usr/lib/gcc/x86_64-linux-gnu/7/../../../x86_64-linux-gnu/crti.o
 .rela.text.arsdk_discovery_net_start
                0x00000000000042f8        0x0 /usr/lib/gcc/x86_64-linux-gnu/7/../../../x86_64-linux-gnu/crti.o
 .rela.text.arsdkctrl_backend_mux_stop_device_conn
                0x00000000000042f8        0x0 /usr/lib/gcc/x86_64-linux-gnu/7/../../../x86_64-linux-gnu/crti.o
 .rela.text.backend_mux_channel_cb
                0x00000000000042f8        0x0 /usr/lib/gcc/x86_64-linux-gnu/7/../../../x86_64-linux-gnu/crti.o
 .rela.text.backend_mux_write_msg.constprop.4
                0x00000000000042f8        0x0 /usr/lib/gcc/x86_64-linux-gnu/7/../../../x86_64-linux-gnu/crti.o
 .rela.text.arsdkctrl_backend_mux_start_device_conn
                0x00000000000042f8        0x0 /usr/lib/gcc/x86_64-linux-gnu/7/../../../x86_64-linux-gnu/crti.o
 .rela.text.arsdkctrl_backend_mux_new
                0x00000000000042f8        0x0 /usr/lib/gcc/x86_64-linux-gnu/7/../../../x86_64-linux-gnu/crti.o
 .rela.text.arsdkctrl_backend_mux_destroy
                0x00000000000042f8        0x0 /usr/lib/gcc/x86_64-linux-gnu/7/../../../x86_64-linux-gnu/crti.o
 .rela.text.discovery_mux_open_discovery_channel
                0x00000000000042f8        0x0 /usr/lib/gcc/x86_64-linux-gnu/7/../../../x86_64-linux-gnu/crti.o
 .rela.text.discovery_mux_channel_cb
                0x00000000000042f8        0x0 /usr/lib/gcc/x86_64-linux-gnu/7/../../../x86_64-linux-gnu/crti.o
 .rela.text.discovery_mux_write_msg.constprop.4
                0x00000000000042f8        0x0 /usr/lib/gcc/x86_64-linux-gnu/7/../../../x86_64-linux-gnu/crti.o
 .rela.text.arsdk_discovery_mux_destroy
                0x00000000000042f8        0x0 /usr/lib/gcc/x86_64-linux-gnu/7/../../../x86_64-linux-gnu/crti.o
 .rela.text.arsdk_discovery_mux_new
                0x00000000000042f8        0x0 /usr/lib/gcc/x86_64-linux-gnu/7/../../../x86_64-linux-gnu/crti.o
 .rela.text.arsdk_discovery_mux_start
                0x00000000000042f8        0x0 /usr/lib/gcc/x86_64-linux-gnu/7/../../../x86_64-linux-gnu/crti.o
 .rela.text.arsdk_discovery_mux_stop
                0x00000000000042f8        0x0 /usr/lib/gcc/x86_64-linux-gnu/7/../../../x86_64-linux-gnu/crti.o
 .rela.text.seq_complete_cb
                0x00000000000042f8        0x0 /usr/lib/gcc/x86_64-linux-gnu/7/../../../x86_64-linux-gnu/crti.o
 .rela.text.seq_data_recv_cb
                0x00000000000042f8        0x0 /usr/lib/gcc/x86_64-linux-gnu/7/../../../x86_64-linux-gnu/crti.o
 .rela.text.seq_socket_cb
                0x00000000000042f8        0x0 /usr/lib/gcc/x86_64-linux-gnu/7/../../../x86_64-linux-gnu/crti.o
 .rela.text.seq_get_file_size_cb
                0x00000000000042f8        0x0 /usr/lib/gcc/x86_64-linux-gnu/7/../../../x86_64-linux-gnu/crti.o
 .rela.text.disconnected_cb
                0x00000000000042f8        0x0 /usr/lib/gcc/x86_64-linux-gnu/7/../../../x86_64-linux-gnu/crti.o
 .rela.text.conn_elem_destroy
                0x00000000000042f8        0x0 /usr/lib/gcc/x86_64-linux-gnu/7/../../../x86_64-linux-gnu/crti.o
 .rela.text.arsdk_ftp_new
                0x00000000000042f8        0x0 /usr/lib/gcc/x86_64-linux-gnu/7/../../../x86_64-linux-gnu/crti.o
 .rela.text.arsdk_ftp_get
                0x00000000000042f8        0x0 /usr/lib/gcc/x86_64-linux-gnu/7/../../../x86_64-linux-gnu/crti.o
 .rela.text.arsdk_ftp_put
                0x00000000000042f8        0x0 /usr/lib/gcc/x86_64-linux-gnu/7/../../../x86_64-linux-gnu/crti.o
 .rela.text.arsdk_ftp_size
                0x00000000000042f8        0x0 /usr/lib/gcc/x86_64-linux-gnu/7/../../../x86_64-linux-gnu/crti.o
 .rela.text.arsdk_ftp_rename
                0x00000000000042f8        0x0 /usr/lib/gcc/x86_64-linux-gnu/7/../../../x86_64-linux-gnu/crti.o
 .rela.text.arsdk_ftp_delete
                0x00000000000042f8        0x0 /usr/lib/gcc/x86_64-linux-gnu/7/../../../x86_64-linux-gnu/crti.o
 .rela.text.arsdk_ftp_list
                0x00000000000042f8        0x0 /usr/lib/gcc/x86_64-linux-gnu/7/../../../x86_64-linux-gnu/crti.o
 .rela.text.arsdk_ftp_cancel_req
                0x00000000000042f8        0x0 /usr/lib/gcc/x86_64-linux-gnu/7/../../../x86_64-linux-gnu/crti.o
 .rela.text.arsdk_ftp_cancel_all
                0x00000000000042f8        0x0 /usr/lib/gcc/x86_64-linux-gnu/7/../../../x86_64-linux-gnu/crti.o
 .rela.text.arsdk_ftp_stop
                0x00000000000042f8        0x0 /usr/lib/gcc/x86_64-linux-gnu/7/../../../x86_64-linux-gnu/crti.o
 .rela.text.arsdk_ftp_destroy
                0x00000000000042f8        0x0 /usr/lib/gcc/x86_64-linux-gnu/7/../../../x86_64-linux-gnu/crti.o
 .rela.text.ftp_disconnected
                0x00000000000042f8        0x0 /usr/lib/gcc/x86_64-linux-gnu/7/../../../x86_64-linux-gnu/crti.o
 .rela.text.arsdk_ftp_conn_send
                0x00000000000042f8        0x0 /usr/lib/gcc/x86_64-linux-gnu/7/../../../x86_64-linux-gnu/crti.o
 .rela.text.process_event
                0x00000000000042f8        0x0 /usr/lib/gcc/x86_64-linux-gnu/7/../../../x86_64-linux-gnu/crti.o
 .rela.text.arsdk_ftp_conn_recv_cb
                0x00000000000042f8        0x0 /usr/lib/gcc/x86_64-linux-gnu/7/../../../x86_64-linux-gnu/crti.o
 .rela.text.arsdk_ftp_conn_event_cb
                0x00000000000042f8        0x0 /usr/lib/gcc/x86_64-linux-gnu/7/../../../x86_64-linux-gnu/crti.o
 .rela.text.arsdk_ftp_conn_destroy
                0x00000000000042f8        0x0 /usr/lib/gcc/x86_64-linux-gnu/7/../../../x86_64-linux-gnu/crti.o
 .rela.text.arsdk_ftp_conn_new
                0x00000000000042f8        0x0 /usr/lib/gcc/x86_64-linux-gnu/7/../../../x86_64-linux-gnu/crti.o
 .rela.text.arsdk_ftp_conn_add_listener
                0x00000000000042f8        0x0 /usr/lib/gcc/x86_64-linux-gnu/7/../../../x86_64-linux-gnu/crti.o
 .rela.text.arsdk_ftp_conn_remove_listener
                0x00000000000042f8        0x0 /usr/lib/gcc/x86_64-linux-gnu/7/../../../x86_64-linux-gnu/crti.o
 .rela.text.stop_send_data
                0x00000000000042f8        0x0 /usr/lib/gcc/x86_64-linux-gnu/7/../../../x86_64-linux-gnu/crti.o
 .rela.text.close_data_stream
                0x00000000000042f8        0x0 /usr/lib/gcc/x86_64-linux-gnu/7/../../../x86_64-linux-gnu/crti.o
 .rela.text.recv_response_cb
                0x00000000000042f8        0x0 /usr/lib/gcc/x86_64-linux-gnu/7/../../../x86_64-linux-gnu/crti.o
 .rela.text.send_next_step
                0x00000000000042f8        0x0 /usr/lib/gcc/x86_64-linux-gnu/7/../../../x86_64-linux-gnu/crti.o
 .rela.text.data_read
                0x00000000000042f8        0x0 /usr/lib/gcc/x86_64-linux-gnu/7/../../../x86_64-linux-gnu/crti.o
 .rela.text.data_recv_cb
                0x00000000000042f8        0x0 /usr/lib/gcc/x86_64-linux-gnu/7/../../../x86_64-linux-gnu/crti.o
 .rela.text.data_event_cb
                0x00000000000042f8        0x0 /usr/lib/gcc/x86_64-linux-gnu/7/../../../x86_64-linux-gnu/crti.o
 .rela.text.connected_cb
                0x00000000000042f8        0x0 /usr/lib/gcc/x86_64-linux-gnu/7/../../../x86_64-linux-gnu/crti.o
 .rela.text.arsdk_ftp_seq_destroy
                0x00000000000042f8        0x0 /usr/lib/gcc/x86_64-linux-gnu/7/../../../x86_64-linux-gnu/crti.o
 .rela.text.arsdk_ftp_seq_new
                0x00000000000042f8        0x0 /usr/lib/gcc/x86_64-linux-gnu/7/../../../x86_64-linux-gnu/crti.o
 .rela.text.arsdk_ftp_seq_append
                0x00000000000042f8        0x0 /usr/lib/gcc/x86_64-linux-gnu/7/../../../x86_64-linux-gnu/crti.o
 .rela.text.arsdk_ftp_seq_start
                0x00000000000042f8        0x0 /usr/lib/gcc/x86_64-linux-gnu/7/../../../x86_64-linux-gnu/crti.o
 .rela.text.arsdk_ftp_seq_stop
                0x00000000000042f8        0x0 /usr/lib/gcc/x86_64-linux-gnu/7/../../../x86_64-linux-gnu/crti.o
 .rela.text.arsdk_ftp_cmd_enc
                0x00000000000042f8        0x0 /usr/lib/gcc/x86_64-linux-gnu/7/../../../x86_64-linux-gnu/crti.o
 .rela.text.arsdk_ftp_cmd_dec
                0x00000000000042f8        0x0 /usr/lib/gcc/x86_64-linux-gnu/7/../../../x86_64-linux-gnu/crti.o
 *(.rela.fini)
 *(.rela.rodata .rela.rodata.* .rela.gnu.linkonce.r.*)
 *(.rela.data .rela.data.* .rela.gnu.linkonce.d.*)
 .rela.data.rel.local
                0x00000000000042f8       0x78 /usr/lib/gcc/x86_64-linux-gnu/7/../../../x86_64-linux-gnu/crti.o
 .rela.data.rel.ro.local
                0x0000000000004370      0xa50 /usr/lib/gcc/x86_64-linux-gnu/7/../../../x86_64-linux-gnu/crti.o
 *(.rela.tdata .rela.tdata.* .rela.gnu.linkonce.td.*)
 *(.rela.tbss .rela.tbss.* .rela.gnu.linkonce.tb.*)
 *(.rela.ctors)
 *(.rela.dtors)
 *(.rela.got)
 .rela.got      0x0000000000004dc0       0x60 /usr/lib/gcc/x86_64-linux-gnu/7/../../../x86_64-linux-gnu/crti.o
 *(.rela.bss .rela.bss.* .rela.gnu.linkonce.b.*)
 *(.rela.ldata .rela.ldata.* .rela.gnu.linkonce.l.*)
 *(.rela.lbss .rela.lbss.* .rela.gnu.linkonce.lb.*)
 *(.rela.lrodata .rela.lrodata.* .rela.gnu.linkonce.lr.*)
 *(.rela.ifunc)
 .rela.ifunc    0x0000000000004e20        0x0 /usr/lib/gcc/x86_64-linux-gnu/7/../../../x86_64-linux-gnu/crti.o
 .rela.fini_array
                0x0000000000004e20       0x18 /usr/lib/gcc/x86_64-linux-gnu/7/../../../x86_64-linux-gnu/crti.o
 .rela.init_array
                0x0000000000004e38       0x18 /usr/lib/gcc/x86_64-linux-gnu/7/../../../x86_64-linux-gnu/crti.o

.rela.plt       0x0000000000004e50     0x1350
 *(.rela.plt)
 .rela.plt      0x0000000000004e50     0x1350 /usr/lib/gcc/x86_64-linux-gnu/7/../../../x86_64-linux-gnu/crti.o
 *(.rela.iplt)

.init           0x00000000000061a0       0x17
 *(SORT_NONE(.init))
 .init          0x00000000000061a0       0x12 /usr/lib/gcc/x86_64-linux-gnu/7/../../../x86_64-linux-gnu/crti.o
                0x00000000000061a0                _init
 .init          0x00000000000061b2        0x5 /usr/lib/gcc/x86_64-linux-gnu/7/../../../x86_64-linux-gnu/crtn.o

.plt            0x00000000000061c0      0xcf0
 *(.plt)
 .plt           0x00000000000061c0      0xcf0 /usr/lib/gcc/x86_64-linux-gnu/7/../../../x86_64-linux-gnu/crti.o
 *(.iplt)

.plt.got        0x0000000000006eb0        0x8
 *(.plt.got)
 .plt.got       0x0000000000006eb0        0x8 /usr/lib/gcc/x86_64-linux-gnu/7/../../../x86_64-linux-gnu/crti.o

.plt.sec
 *(.plt.sec)

.text           0x0000000000006ec0    0x24c5d
 *(.text.unlikely .text.*_unlikely .text.unlikely.*)
 *(.text.exit .text.exit.*)
 *(.text.startup .text.startup.*)
 *(.text.hot .text.hot.*)
 *(.text .stub .text.* .gnu.linkonce.t.*)
 .text          0x0000000000006ec0       0xda /usr/lib/gcc/x86_64-linux-gnu/7/crtbeginS.o
 *fill*         0x0000000000006f9a        0x6 
 .text.arsdk_discovery_find_device
                0x0000000000006fa0       0xbc /home/zxli/code/parrot-groundsdk/out/olympe-linux/build/libarsdkctrl/obj/libarsdkctrl/src/arsdk_discovery.c.o
 *fill*         0x000000000000705c        0x4 
 .text.arsdk_discovery_timer_cb
                0x0000000000007060      0x13f /home/zxli/code/parrot-groundsdk/out/olympe-linux/build/libarsdkctrl/obj/libarsdkctrl/src/arsdk_discovery.c.o
 *fill*         0x000000000000719f        0x1 
 .text.arsdk_discovery_start
                0x00000000000071a0      0x150 /home/zxli/code/parrot-groundsdk/out/olympe-linux/build/libarsdkctrl/obj/libarsdkctrl/src/arsdk_discovery.c.o
                0x00000000000071a0                arsdk_discovery_start
 .text.arsdk_discovery_stop
                0x00000000000072f0       0xea /home/zxli/code/parrot-groundsdk/out/olympe-linux/build/libarsdkctrl/obj/libarsdkctrl/src/arsdk_discovery.c.o
                0x00000000000072f0                arsdk_discovery_stop
 *fill*         0x00000000000073da        0x6 
 .text.arsdk_discovery_add_device
                0x00000000000073e0      0x2d2 /home/zxli/code/parrot-groundsdk/out/olympe-linux/build/libarsdkctrl/obj/libarsdkctrl/src/arsdk_discovery.c.o
                0x00000000000073e0                arsdk_discovery_add_device
 *fill*         0x00000000000076b2        0xe 
 .text.arsdk_discovery_remove_device
                0x00000000000076c0      0x250 /home/zxli/code/parrot-groundsdk/out/olympe-linux/build/libarsdkctrl/obj/libarsdkctrl/src/arsdk_discovery.c.o
                0x00000000000076c0                arsdk_discovery_remove_device
 .text.arsdk_discovery_destroy
                0x0000000000007910       0xad /home/zxli/code/parrot-groundsdk/out/olympe-linux/build/libarsdkctrl/obj/libarsdkctrl/src/arsdk_discovery.c.o
                0x0000000000007910                arsdk_discovery_destroy
 *fill*         0x00000000000079bd        0x3 
 .text.arsdk_discovery_new
                0x00000000000079c0      0x2a1 /home/zxli/code/parrot-groundsdk/out/olympe-linux/build/libarsdkctrl/obj/libarsdkctrl/src/arsdk_discovery.c.o
                0x00000000000079c0                arsdk_discovery_new
 *fill*         0x0000000000007c61        0xf 
 .text.arsdk_ctrl_new
                0x0000000000007c70      0x147 /home/zxli/code/parrot-groundsdk/out/olympe-linux/build/libarsdkctrl/obj/libarsdkctrl/src/arsdk_ctrl.c.o
                0x0000000000007c70                arsdk_ctrl_new
 *fill*         0x0000000000007db7        0x9 
 .text.arsdk_ctrl_set_device_cbs
                0x0000000000007dc0      0x19d /home/zxli/code/parrot-groundsdk/out/olympe-linux/build/libarsdkctrl/obj/libarsdkctrl/src/arsdk_ctrl.c.o
                0x0000000000007dc0                arsdk_ctrl_set_device_cbs
 *fill*         0x0000000000007f5d        0x3 
 .text.arsdk_ctrl_get_loop
                0x0000000000007f60       0x13 /home/zxli/code/parrot-groundsdk/out/olympe-linux/build/libarsdkctrl/obj/libarsdkctrl/src/arsdk_ctrl.c.o
                0x0000000000007f60                arsdk_ctrl_get_loop
 *fill*         0x0000000000007f73        0xd 
 .text.arsdk_ctrl_next_device
                0x0000000000007f80       0x33 /home/zxli/code/parrot-groundsdk/out/olympe-linux/build/libarsdkctrl/obj/libarsdkctrl/src/arsdk_ctrl.c.o
                0x0000000000007f80                arsdk_ctrl_next_device
 *fill*         0x0000000000007fb3        0xd 
 .text.arsdk_ctrl_create_device
                0x0000000000007fc0      0x30b /home/zxli/code/parrot-groundsdk/out/olympe-linux/build/libarsdkctrl/obj/libarsdkctrl/src/arsdk_ctrl.c.o
                0x0000000000007fc0                arsdk_ctrl_create_device
 *fill*         0x00000000000082cb        0x5 
 .text.arsdk_ctrl_destroy_device
                0x00000000000082d0      0x27e /home/zxli/code/parrot-groundsdk/out/olympe-linux/build/libarsdkctrl/obj/libarsdkctrl/src/arsdk_ctrl.c.o
                0x00000000000082d0                arsdk_ctrl_destroy_device
 *fill*         0x000000000000854e        0x2 
 .text.arsdk_ctrl_register_backend
                0x0000000000008550      0x194 /home/zxli/code/parrot-groundsdk/out/olympe-linux/build/libarsdkctrl/obj/libarsdkctrl/src/arsdk_ctrl.c.o
                0x0000000000008550                arsdk_ctrl_register_backend
 *fill*         0x00000000000086e4        0xc 
 .text.arsdk_ctrl_unregister_backend
                0x00000000000086f0      0x1c4 /home/zxli/code/parrot-groundsdk/out/olympe-linux/build/libarsdkctrl/obj/libarsdkctrl/src/arsdk_ctrl.c.o
                0x00000000000086f0                arsdk_ctrl_unregister_backend
 *fill*         0x00000000000088b4        0xc 
 .text.arsdk_ctrl_register_discovery
                0x00000000000088c0      0x194 /home/zxli/code/parrot-groundsdk/out/olympe-linux/build/libarsdkctrl/obj/libarsdkctrl/src/arsdk_ctrl.c.o
                0x00000000000088c0                arsdk_ctrl_register_discovery
 *fill*         0x0000000000008a54        0xc 
 .text.arsdk_ctrl_unregister_discovery
                0x0000000000008a60      0x1b7 /home/zxli/code/parrot-groundsdk/out/olympe-linux/build/libarsdkctrl/obj/libarsdkctrl/src/arsdk_ctrl.c.o
                0x0000000000008a60                arsdk_ctrl_unregister_discovery
 *fill*         0x0000000000008c17        0x9 
 .text.arsdk_ctrl_destroy
                0x0000000000008c20       0xde /home/zxli/code/parrot-groundsdk/out/olympe-linux/build/libarsdkctrl/obj/libarsdkctrl/src/arsdk_ctrl.c.o
                0x0000000000008c20                arsdk_ctrl_destroy
 *fill*         0x0000000000008cfe        0x2 
 .text.arsdk_ctrl_get_device
                0x0000000000008d00       0x4a /home/zxli/code/parrot-groundsdk/out/olympe-linux/build/libarsdkctrl/obj/libarsdkctrl/src/arsdk_ctrl.c.o
                0x0000000000008d00                arsdk_ctrl_get_device
 *fill*         0x0000000000008d4a        0x6 
 .text.arsdkctrl_backend_new
                0x0000000000008d50      0x247 /home/zxli/code/parrot-groundsdk/out/olympe-linux/build/libarsdkctrl/obj/libarsdkctrl/src/arsdkctrl_backend.c.o
                0x0000000000008d50                arsdkctrl_backend_new
 *fill*         0x0000000000008f97        0x9 
 .text.arsdkctrl_backend_destroy
                0x0000000000008fa0       0xad /home/zxli/code/parrot-groundsdk/out/olympe-linux/build/libarsdkctrl/obj/libarsdkctrl/src/arsdkctrl_backend.c.o
                0x0000000000008fa0                arsdkctrl_backend_destroy
 *fill*         0x000000000000904d        0x3 
 .text.arsdkctrl_backend_get_child
                0x0000000000009050       0x13 /home/zxli/code/parrot-groundsdk/out/olympe-linux/build/libarsdkctrl/obj/libarsdkctrl/src/arsdkctrl_backend.c.o
                0x0000000000009050                arsdkctrl_backend_get_child
 *fill*         0x0000000000009063        0xd 
 .text.arsdkctrl_backend_set_osdata
                0x0000000000009070       0x85 /home/zxli/code/parrot-groundsdk/out/olympe-linux/build/libarsdkctrl/obj/libarsdkctrl/src/arsdkctrl_backend.c.o
                0x0000000000009070                arsdkctrl_backend_set_osdata
 *fill*         0x00000000000090f5        0xb 
 .text.arsdkctrl_backend_get_osdata
                0x0000000000009100       0x13 /home/zxli/code/parrot-groundsdk/out/olympe-linux/build/libarsdkctrl/obj/libarsdkctrl/src/arsdkctrl_backend.c.o
                0x0000000000009100                arsdkctrl_backend_get_osdata
 *fill*         0x0000000000009113        0xd 
 .text.arsdkctrl_backend_get_name
                0x0000000000009120       0x13 /home/zxli/code/parrot-groundsdk/out/olympe-linux/build/libarsdkctrl/obj/libarsdkctrl/src/arsdkctrl_backend.c.o
                0x0000000000009120                arsdkctrl_backend_get_name
 *fill*         0x0000000000009133        0xd 
 .text.arsdkctrl_backend_get_type
                0x0000000000009140        0xf /home/zxli/code/parrot-groundsdk/out/olympe-linux/build/libarsdkctrl/obj/libarsdkctrl/src/arsdkctrl_backend.c.o
                0x0000000000009140                arsdkctrl_backend_get_type
 *fill*         0x000000000000914f        0x1 
 .text.arsdkctrl_backend_start_device_conn
                0x0000000000009150       0x9c /home/zxli/code/parrot-groundsdk/out/olympe-linux/build/libarsdkctrl/obj/libarsdkctrl/src/arsdkctrl_backend.c.o
                0x0000000000009150                arsdkctrl_backend_start_device_conn
 *fill*         0x00000000000091ec        0x4 
 .text.arsdkctrl_backend_stop_device_conn
                0x00000000000091f0       0x9c /home/zxli/code/parrot-groundsdk/out/olympe-linux/build/libarsdkctrl/obj/libarsdkctrl/src/arsdkctrl_backend.c.o
                0x00000000000091f0                arsdkctrl_backend_stop_device_conn
 *fill*         0x000000000000928c        0x4 
 .text.arsdkctrl_backend_socket_cb
                0x0000000000009290       0x95 /home/zxli/code/parrot-groundsdk/out/olympe-linux/build/libarsdkctrl/obj/libarsdkctrl/src/arsdkctrl_backend.c.o
                0x0000000000009290                arsdkctrl_backend_socket_cb
 *fill*         0x0000000000009325        0xb 
 .text.ftp_to_media_status
                0x0000000000009330       0x95 /home/zxli/code/parrot-groundsdk/out/olympe-linux/build/libarsdkctrl/obj/libarsdkctrl/src/arsdk_media_itf.c.o
 *fill*         0x00000000000093c5        0xb 
 .text.ftpget_progress_cb
                0x00000000000093d0       0x89 /home/zxli/code/parrot-groundsdk/out/olympe-linux/build/libarsdkctrl/obj/libarsdkctrl/src/arsdk_media_itf.c.o
 *fill*         0x0000000000009459        0x7 
 .text.req_destroy
                0x0000000000009460       0x7d /home/zxli/code/parrot-groundsdk/out/olympe-linux/build/libarsdkctrl/obj/libarsdkctrl/src/arsdk_media_itf.c.o
 *fill*         0x00000000000094dd        0x3 
 .text.req_new  0x00000000000094e0       0x86 /home/zxli/code/parrot-groundsdk/out/olympe-linux/build/libarsdkctrl/obj/libarsdkctrl/src/arsdk_media_itf.c.o
 *fill*         0x0000000000009566        0xa 
 .text.arsdk_media_req_download_destroy
                0x0000000000009570       0xfd /home/zxli/code/parrot-groundsdk/out/olympe-linux/build/libarsdkctrl/obj/libarsdkctrl/src/arsdk_media_itf.c.o
 *fill*         0x000000000000966d        0x3 
 .text.ftpget_complete_cb
                0x0000000000009670       0xe5 /home/zxli/code/parrot-groundsdk/out/olympe-linux/build/libarsdkctrl/obj/libarsdkctrl/src/arsdk_media_itf.c.o
 *fill*         0x0000000000009755        0xb 
 .text.arsdk_media_res_destroy
                0x0000000000009760       0x9d /home/zxli/code/parrot-groundsdk/out/olympe-linux/build/libarsdkctrl/obj/libarsdkctrl/src/arsdk_media_itf.c.o
 *fill*         0x00000000000097fd        0x3 
 .text.arsdk_media_res_new_from_file
                0x0000000000009800      0x1d1 /home/zxli/code/parrot-groundsdk/out/olympe-linux/build/libarsdkctrl/obj/libarsdkctrl/src/arsdk_media_itf.c.o
 *fill*         0x00000000000099d1        0xf 
 .text.file_to_media_name
                0x00000000000099e0       0xcf /home/zxli/code/parrot-groundsdk/out/olympe-linux/build/libarsdkctrl/obj/libarsdkctrl/src/arsdk_media_itf.c.o
 *fill*         0x0000000000009aaf        0x1 
 .text.arsdk_media_req_delete_cancel
                0x0000000000009ab0       0xae /home/zxli/code/parrot-groundsdk/out/olympe-linux/build/libarsdkctrl/obj/libarsdkctrl/src/arsdk_media_itf.c.o
 *fill*         0x0000000000009b5e        0x2 
 .text.arsdk_media_itf_new
                0x0000000000009b60      0x117 /home/zxli/code/parrot-groundsdk/out/olympe-linux/build/libarsdkctrl/obj/libarsdkctrl/src/arsdk_media_itf.c.o
                0x0000000000009b60                arsdk_media_itf_new
 *fill*         0x0000000000009c77        0x9 
 .text.arsdk_media_ref
                0x0000000000009c80       0x7d /home/zxli/code/parrot-groundsdk/out/olympe-linux/build/libarsdkctrl/obj/libarsdkctrl/src/arsdk_media_itf.c.o
                0x0000000000009c80                arsdk_media_ref
 *fill*         0x0000000000009cfd        0x3 
 .text.arsdk_media_unref
                0x0000000000009d00      0x100 /home/zxli/code/parrot-groundsdk/out/olympe-linux/build/libarsdkctrl/obj/libarsdkctrl/src/arsdk_media_itf.c.o
                0x0000000000009d00                arsdk_media_unref
 .text.arsdk_media_req_delete_destroy
                0x0000000000009e00       0xfd /home/zxli/code/parrot-groundsdk/out/olympe-linux/build/libarsdkctrl/obj/libarsdkctrl/src/arsdk_media_itf.c.o
 *fill*         0x0000000000009efd        0x3 
 .text.ftpdel_complete_cb
                0x0000000000009f00      0x171 /home/zxli/code/parrot-groundsdk/out/olympe-linux/build/libarsdkctrl/obj/libarsdkctrl/src/arsdk_media_itf.c.o
 *fill*         0x000000000000a071        0xf 
 .text.arsdk_media_req_list_cancel
                0x000000000000a080      0x12d /home/zxli/code/parrot-groundsdk/out/olympe-linux/build/libarsdkctrl/obj/libarsdkctrl/src/arsdk_media_itf.c.o
                0x000000000000a080                arsdk_media_req_list_cancel
 *fill*         0x000000000000a1ad        0x3 
 .text.arsdk_media_req_list_get_dev_type
                0x000000000000a1b0       0x1e /home/zxli/code/parrot-groundsdk/out/olympe-linux/build/libarsdkctrl/obj/libarsdkctrl/src/arsdk_media_itf.c.o
                0x000000000000a1b0                arsdk_media_req_list_get_dev_type
 *fill*         0x000000000000a1ce        0x2 
 .text.arsdk_media_req_list_get_result
                0x000000000000a1d0       0x13 /home/zxli/code/parrot-groundsdk/out/olympe-linux/build/libarsdkctrl/obj/libarsdkctrl/src/arsdk_media_itf.c.o
                0x000000000000a1d0                arsdk_media_req_list_get_result
 *fill*         0x000000000000a1e3        0xd 
 .text.arsdk_media_list_next_media
                0x000000000000a1f0       0x33 /home/zxli/code/parrot-groundsdk/out/olympe-linux/build/libarsdkctrl/obj/libarsdkctrl/src/arsdk_media_itf.c.o
                0x000000000000a1f0                arsdk_media_list_next_media
 *fill*         0x000000000000a223        0xd 
 .text.arsdk_media_list_get_count
                0x000000000000a230       0x3a /home/zxli/code/parrot-groundsdk/out/olympe-linux/build/libarsdkctrl/obj/libarsdkctrl/src/arsdk_media_itf.c.o
                0x000000000000a230                arsdk_media_list_get_count
 *fill*         0x000000000000a26a        0x6 
 .text.arsdk_media_list_ref
                0x000000000000a270       0x7d /home/zxli/code/parrot-groundsdk/out/olympe-linux/build/libarsdkctrl/obj/libarsdkctrl/src/arsdk_media_itf.c.o
                0x000000000000a270                arsdk_media_list_ref
 *fill*         0x000000000000a2ed        0x3 
 .text.arsdk_media_list_unref
                0x000000000000a2f0       0xf0 /home/zxli/code/parrot-groundsdk/out/olympe-linux/build/libarsdkctrl/obj/libarsdkctrl/src/arsdk_media_itf.c.o
                0x000000000000a2f0                arsdk_media_list_unref
 .text.arsdk_media_req_list_destroy
                0x000000000000a3e0       0xed /home/zxli/code/parrot-groundsdk/out/olympe-linux/build/libarsdkctrl/obj/libarsdkctrl/src/arsdk_media_itf.c.o
 *fill*         0x000000000000a4cd        0x3 
 .text.arsdk_media_itf_create_req_list
                0x000000000000a4d0      0x31c /home/zxli/code/parrot-groundsdk/out/olympe-linux/build/libarsdkctrl/obj/libarsdkctrl/src/arsdk_media_itf.c.o
                0x000000000000a4d0                arsdk_media_itf_create_req_list
 *fill*         0x000000000000a7ec        0x4 
 .text.pfld_list_complete_cb
                0x000000000000a7f0      0x9e8 /home/zxli/code/parrot-groundsdk/out/olympe-linux/build/libarsdkctrl/obj/libarsdkctrl/src/arsdk_media_itf.c.o
 *fill*         0x000000000000b1d8        0x8 
 .text.arsdk_media_itf_create_req_download
                0x000000000000b1e0      0x3d6 /home/zxli/code/parrot-groundsdk/out/olympe-linux/build/libarsdkctrl/obj/libarsdkctrl/src/arsdk_media_itf.c.o
                0x000000000000b1e0                arsdk_media_itf_create_req_download
 *fill*         0x000000000000b5b6        0xa 
 .text.arsdk_media_req_download_cancel
                0x000000000000b5c0      0x12d /home/zxli/code/parrot-groundsdk/out/olympe-linux/build/libarsdkctrl/obj/libarsdkctrl/src/arsdk_media_itf.c.o
                0x000000000000b5c0                arsdk_media_req_download_cancel
 *fill*         0x000000000000b6ed        0x3 
 .text.arsdk_media_req_download_get_uri
                0x000000000000b6f0       0x13 /home/zxli/code/parrot-groundsdk/out/olympe-linux/build/libarsdkctrl/obj/libarsdkctrl/src/arsdk_media_itf.c.o
                0x000000000000b6f0                arsdk_media_req_download_get_uri
 *fill*         0x000000000000b703        0xd 
 .text.arsdk_media_req_download_get_local_path
                0x000000000000b710       0x13 /home/zxli/code/parrot-groundsdk/out/olympe-linux/build/libarsdkctrl/obj/libarsdkctrl/src/arsdk_media_itf.c.o
                0x000000000000b710                arsdk_media_req_download_get_local_path
 *fill*         0x000000000000b723        0xd 
 .text.arsdk_media_req_download_get_buffer
                0x000000000000b730       0x1b /home/zxli/code/parrot-groundsdk/out/olympe-linux/build/libarsdkctrl/obj/libarsdkctrl/src/arsdk_media_itf.c.o
                0x000000000000b730                arsdk_media_req_download_get_buffer
 *fill*         0x000000000000b74b        0x5 
 .text.arsdk_media_req_download_get_dev_type
                0x000000000000b750       0x1e /home/zxli/code/parrot-groundsdk/out/olympe-linux/build/libarsdkctrl/obj/libarsdkctrl/src/arsdk_media_itf.c.o
                0x000000000000b750                arsdk_media_req_download_get_dev_type
 *fill*         0x000000000000b76e        0x2 
 .text.arsdk_media_next_res
                0x000000000000b770       0x33 /home/zxli/code/parrot-groundsdk/out/olympe-linux/build/libarsdkctrl/obj/libarsdkctrl/src/arsdk_media_itf.c.o
                0x000000000000b770                arsdk_media_next_res
 *fill*         0x000000000000b7a3        0xd 
 .text.arsdk_media_get_res_count
                0x000000000000b7b0       0x3a /home/zxli/code/parrot-groundsdk/out/olympe-linux/build/libarsdkctrl/obj/libarsdkctrl/src/arsdk_media_itf.c.o
                0x000000000000b7b0                arsdk_media_get_res_count
 *fill*         0x000000000000b7ea        0x6 
 .text.arsdk_media_req_delete_get_media
                0x000000000000b7f0       0x13 /home/zxli/code/parrot-groundsdk/out/olympe-linux/build/libarsdkctrl/obj/libarsdkctrl/src/arsdk_media_itf.c.o
                0x000000000000b7f0                arsdk_media_req_delete_get_media
 *fill*         0x000000000000b803        0xd 
 .text.arsdk_media_req_delete_get_dev_type
                0x000000000000b810       0x1e /home/zxli/code/parrot-groundsdk/out/olympe-linux/build/libarsdkctrl/obj/libarsdkctrl/src/arsdk_media_itf.c.o
                0x000000000000b810                arsdk_media_req_delete_get_dev_type
 *fill*         0x000000000000b82e        0x2 
 .text.arsdk_media_itf_cancel_all
                0x000000000000b830       0xee /home/zxli/code/parrot-groundsdk/out/olympe-linux/build/libarsdkctrl/obj/libarsdkctrl/src/arsdk_media_itf.c.o
                0x000000000000b830                arsdk_media_itf_cancel_all
 *fill*         0x000000000000b91e        0x2 
 .text.arsdk_media_itf_stop
                0x000000000000b920      0x377 /home/zxli/code/parrot-groundsdk/out/olympe-linux/build/libarsdkctrl/obj/libarsdkctrl/src/arsdk_media_itf.c.o
                0x000000000000b920                arsdk_media_itf_stop
 *fill*         0x000000000000bc97        0x9 
 .text.arsdk_media_itf_destroy
                0x000000000000bca0       0x9d /home/zxli/code/parrot-groundsdk/out/olympe-linux/build/libarsdkctrl/obj/libarsdkctrl/src/arsdk_media_itf.c.o
                0x000000000000bca0                arsdk_media_itf_destroy
 *fill*         0x000000000000bd3d        0x3 
 .text.arsdk_media_get_name
                0x000000000000bd40       0x13 /home/zxli/code/parrot-groundsdk/out/olympe-linux/build/libarsdkctrl/obj/libarsdkctrl/src/arsdk_media_itf.c.o
                0x000000000000bd40                arsdk_media_get_name
 *fill*         0x000000000000bd53        0xd 
 .text.arsdk_media_get_runid
                0x000000000000bd60       0x13 /home/zxli/code/parrot-groundsdk/out/olympe-linux/build/libarsdkctrl/obj/libarsdkctrl/src/arsdk_media_itf.c.o
                0x000000000000bd60                arsdk_media_get_runid
 *fill*         0x000000000000bd73        0xd 
 .text.arsdk_media_get_date
                0x000000000000bd80       0x11 /home/zxli/code/parrot-groundsdk/out/olympe-linux/build/libarsdkctrl/obj/libarsdkctrl/src/arsdk_media_itf.c.o
                0x000000000000bd80                arsdk_media_get_date
 *fill*         0x000000000000bd91        0xf 
 .text.arsdk_media_get_type
                0x000000000000bda0        0xc /home/zxli/code/parrot-groundsdk/out/olympe-linux/build/libarsdkctrl/obj/libarsdkctrl/src/arsdk_media_itf.c.o
                0x000000000000bda0                arsdk_media_get_type
 *fill*         0x000000000000bdac        0x4 
 .text.arsdk_media_res_get_type
                0x000000000000bdb0        0xf /home/zxli/code/parrot-groundsdk/out/olympe-linux/build/libarsdkctrl/obj/libarsdkctrl/src/arsdk_media_itf.c.o
                0x000000000000bdb0                arsdk_media_res_get_type
 *fill*         0x000000000000bdbf        0x1 
 .text.arsdk_media_res_get_fmt
                0x000000000000bdc0        0xf /home/zxli/code/parrot-groundsdk/out/olympe-linux/build/libarsdkctrl/obj/libarsdkctrl/src/arsdk_media_itf.c.o
                0x000000000000bdc0                arsdk_media_res_get_fmt
 *fill*         0x000000000000bdcf        0x1 
 .text.arsdk_media_res_get_uri
                0x000000000000bdd0       0x13 /home/zxli/code/parrot-groundsdk/out/olympe-linux/build/libarsdkctrl/obj/libarsdkctrl/src/arsdk_media_itf.c.o
                0x000000000000bdd0                arsdk_media_res_get_uri
 *fill*         0x000000000000bde3        0xd 
 .text.arsdk_media_itf_create_req_delete
                0x000000000000bdf0      0x3ac /home/zxli/code/parrot-groundsdk/out/olympe-linux/build/libarsdkctrl/obj/libarsdkctrl/src/arsdk_media_itf.c.o
                0x000000000000bdf0                arsdk_media_itf_create_req_delete
 *fill*         0x000000000000c19c        0x4 
 .text.arsdk_media_res_get_size
                0x000000000000c1a0       0x13 /home/zxli/code/parrot-groundsdk/out/olympe-linux/build/libarsdkctrl/obj/libarsdkctrl/src/arsdk_media_itf.c.o
                0x000000000000c1a0                arsdk_media_res_get_size
 *fill*         0x000000000000c1b3        0xd 
 .text.arsdk_media_res_get_name
                0x000000000000c1c0       0x13 /home/zxli/code/parrot-groundsdk/out/olympe-linux/build/libarsdkctrl/obj/libarsdkctrl/src/arsdk_media_itf.c.o
                0x000000000000c1c0                arsdk_media_res_get_name
 *fill*         0x000000000000c1d3        0xd 
 .text.arsdk_updater_itf_stop
                0x000000000000c1e0       0x9d /home/zxli/code/parrot-groundsdk/out/olympe-linux/build/libarsdkctrl/obj/libarsdkctrl/src/arsdk_updater_itf.c.o
                0x000000000000c1e0                arsdk_updater_itf_stop
 *fill*         0x000000000000c27d        0x3 
 .text.arsdk_updater_itf_cancel_all
                0x000000000000c280       0x9d /home/zxli/code/parrot-groundsdk/out/olympe-linux/build/libarsdkctrl/obj/libarsdkctrl/src/arsdk_updater_itf.c.o
                0x000000000000c280                arsdk_updater_itf_cancel_all
 *fill*         0x000000000000c31d        0x3 
 .text.arsdk_updater_itf_destroy
                0x000000000000c320       0xad /home/zxli/code/parrot-groundsdk/out/olympe-linux/build/libarsdkctrl/obj/libarsdkctrl/src/arsdk_updater_itf.c.o
                0x000000000000c320                arsdk_updater_itf_destroy
 *fill*         0x000000000000c3cd        0x3 
 .text.arsdk_updater_itf_new
                0x000000000000c3d0      0x17a /home/zxli/code/parrot-groundsdk/out/olympe-linux/build/libarsdkctrl/obj/libarsdkctrl/src/arsdk_updater_itf.c.o
                0x000000000000c3d0                arsdk_updater_itf_new
 *fill*         0x000000000000c54a        0x6 
 .text.arsdk_updater_itf_create_req_upload
                0x000000000000c550      0x130 /home/zxli/code/parrot-groundsdk/out/olympe-linux/build/libarsdkctrl/obj/libarsdkctrl/src/arsdk_updater_itf.c.o
                0x000000000000c550                arsdk_updater_itf_create_req_upload
 .text.arsdk_updater_req_upload_cancel
                0x000000000000c680       0x8d /home/zxli/code/parrot-groundsdk/out/olympe-linux/build/libarsdkctrl/obj/libarsdkctrl/src/arsdk_updater_itf.c.o
                0x000000000000c680                arsdk_updater_req_upload_cancel
 *fill*         0x000000000000c70d        0x3 
 .text.arsdk_updater_appid_to_devtype
                0x000000000000c710       0x36 /home/zxli/code/parrot-groundsdk/out/olympe-linux/build/libarsdkctrl/obj/libarsdkctrl/src/arsdk_updater_itf.c.o
                0x000000000000c710                arsdk_updater_appid_to_devtype
 *fill*         0x000000000000c746        0xa 
 .text.arsdk_updater_read_fw_info
                0x000000000000c750      0x218 /home/zxli/code/parrot-groundsdk/out/olympe-linux/build/libarsdkctrl/obj/libarsdkctrl/src/arsdk_updater_itf.c.o
                0x000000000000c750                arsdk_updater_read_fw_info
 *fill*         0x000000000000c968        0x8 
 .text.arsdk_updater_fw_dev_comp
                0x000000000000c970       0x4f /home/zxli/code/parrot-groundsdk/out/olympe-linux/build/libarsdkctrl/obj/libarsdkctrl/src/arsdk_updater_itf.c.o
                0x000000000000c970                arsdk_updater_fw_dev_comp
 *fill*         0x000000000000c9bf        0x1 
 .text.arsdk_updater_req_upload_child
                0x000000000000c9c0       0x13 /home/zxli/code/parrot-groundsdk/out/olympe-linux/build/libarsdkctrl/obj/libarsdkctrl/src/arsdk_updater_itf.c.o
                0x000000000000c9c0                arsdk_updater_req_upload_child
 *fill*         0x000000000000c9d3        0xd 
 .text.arsdk_updater_req_upload_get_dev_type
                0x000000000000c9e0        0xf /home/zxli/code/parrot-groundsdk/out/olympe-linux/build/libarsdkctrl/obj/libarsdkctrl/src/arsdk_updater_itf.c.o
                0x000000000000c9e0                arsdk_updater_req_upload_get_dev_type
 *fill*         0x000000000000c9ef        0x1 
 .text.arsdk_updater_new_req_upload
                0x000000000000c9f0      0x2b1 /home/zxli/code/parrot-groundsdk/out/olympe-linux/build/libarsdkctrl/obj/libarsdkctrl/src/arsdk_updater_itf.c.o
                0x000000000000c9f0                arsdk_updater_new_req_upload
 *fill*         0x000000000000cca1        0xf 
 .text.arsdk_updater_destroy_req_upload
                0x000000000000ccb0       0x8d /home/zxli/code/parrot-groundsdk/out/olympe-linux/build/libarsdkctrl/obj/libarsdkctrl/src/arsdk_updater_itf.c.o
                0x000000000000ccb0                arsdk_updater_destroy_req_upload
 *fill*         0x000000000000cd3d        0x3 
 .text.blackbox_mux_channel_cb
                0x000000000000cd40      0x371 /home/zxli/code/parrot-groundsdk/out/olympe-linux/build/libarsdkctrl/obj/libarsdkctrl/src/arsdk_blackbox_itf.c.o
 *fill*         0x000000000000d0b1        0xf 
 .text.arsdk_blackbox_itf_create_listener
                0x000000000000d0c0      0x1b7 /home/zxli/code/parrot-groundsdk/out/olympe-linux/build/libarsdkctrl/obj/libarsdkctrl/src/arsdk_blackbox_itf.c.o
                0x000000000000d0c0                arsdk_blackbox_itf_create_listener
 *fill*         0x000000000000d277        0x9 
 .text.arsdk_blackbox_listener_unregister
                0x000000000000d280       0x9e /home/zxli/code/parrot-groundsdk/out/olympe-linux/build/libarsdkctrl/obj/libarsdkctrl/src/arsdk_blackbox_itf.c.o
                0x000000000000d280                arsdk_blackbox_listener_unregister
 *fill*         0x000000000000d31e        0x2 
 .text.arsdk_blackbox_itf_stop
                0x000000000000d320       0xcd /home/zxli/code/parrot-groundsdk/out/olympe-linux/build/libarsdkctrl/obj/libarsdkctrl/src/arsdk_blackbox_itf.c.o
                0x000000000000d320                arsdk_blackbox_itf_stop
 *fill*         0x000000000000d3ed        0x3 
 .text.arsdk_blackbox_itf_destroy
                0x000000000000d3f0       0x9d /home/zxli/code/parrot-groundsdk/out/olympe-linux/build/libarsdkctrl/obj/libarsdkctrl/src/arsdk_blackbox_itf.c.o
                0x000000000000d3f0                arsdk_blackbox_itf_destroy
 *fill*         0x000000000000d48d        0x3 
 .text.arsdk_blackbox_itf_new
                0x000000000000d490      0x108 /home/zxli/code/parrot-groundsdk/out/olympe-linux/build/libarsdkctrl/obj/libarsdkctrl/src/arsdk_blackbox_itf.c.o
                0x000000000000d490                arsdk_blackbox_itf_new
 *fill*         0x000000000000d598        0x8 
 .text.ftp_get_progress_cb
                0x000000000000d5a0        0x2 /home/zxli/code/parrot-groundsdk/out/olympe-linux/build/libarsdkctrl/obj/libarsdkctrl/src/arsdk_crashml_itf.c.o
 *fill*         0x000000000000d5a2        0xe 
 .text.has_tgz_ext
                0x000000000000d5b0       0x44 /home/zxli/code/parrot-groundsdk/out/olympe-linux/build/libarsdkctrl/obj/libarsdkctrl/src/arsdk_crashml_itf.c.o
 *fill*         0x000000000000d5f4        0xc 
 .text.clean_local_dir
                0x000000000000d600      0x4b5 /home/zxli/code/parrot-groundsdk/out/olympe-linux/build/libarsdkctrl/obj/libarsdkctrl/src/arsdk_crashml_itf.c.o
 *fill*         0x000000000000dab5        0xb 
 .text.ftp_get_file
                0x000000000000dac0      0x212 /home/zxli/code/parrot-groundsdk/out/olympe-linux/build/libarsdkctrl/obj/libarsdkctrl/src/arsdk_crashml_itf.c.o
 *fill*         0x000000000000dcd2        0xe 
 .text.ftp_del_file
                0x000000000000dce0      0x1a2 /home/zxli/code/parrot-groundsdk/out/olympe-linux/build/libarsdkctrl/obj/libarsdkctrl/src/arsdk_crashml_itf.c.o
 *fill*         0x000000000000de82        0xe 
 .text.ftp_to_crashml_status
                0x000000000000de90       0x95 /home/zxli/code/parrot-groundsdk/out/olympe-linux/build/libarsdkctrl/obj/libarsdkctrl/src/arsdk_crashml_itf.c.o
 *fill*         0x000000000000df25        0xb 
 .text.unlink_cb
                0x000000000000df30       0x9f /home/zxli/code/parrot-groundsdk/out/olympe-linux/build/libarsdkctrl/obj/libarsdkctrl/src/arsdk_crashml_itf.c.o
 *fill*         0x000000000000dfcf        0x1 
 .text.simple_req_delete
                0x000000000000dfd0       0xc5 /home/zxli/code/parrot-groundsdk/out/olympe-linux/build/libarsdkctrl/obj/libarsdkctrl/src/arsdk_crashml_itf.c.o
 *fill*         0x000000000000e095        0xb 
 .text.simple_req_new
                0x000000000000e0a0      0x4a9 /home/zxli/code/parrot-groundsdk/out/olympe-linux/build/libarsdkctrl/obj/libarsdkctrl/src/arsdk_crashml_itf.c.o
 *fill*         0x000000000000e549        0x7 
 .text.arsdk_crashml_req_delete
                0x000000000000e550       0xa5 /home/zxli/code/parrot-groundsdk/out/olympe-linux/build/libarsdkctrl/obj/libarsdkctrl/src/arsdk_crashml_itf.c.o
 *fill*         0x000000000000e5f5        0xb 
 .text.req_done
                0x000000000000e600       0xcd /home/zxli/code/parrot-groundsdk/out/olympe-linux/build/libarsdkctrl/obj/libarsdkctrl/src/arsdk_crashml_itf.c.o
 *fill*         0x000000000000e6cd        0x3 
 .text.curr_req_done.isra.6
                0x000000000000e6d0      0x142 /home/zxli/code/parrot-groundsdk/out/olympe-linux/build/libarsdkctrl/obj/libarsdkctrl/src/arsdk_crashml_itf.c.o
 *fill*         0x000000000000e812        0xe 
 .text.req_start_next
                0x000000000000e820      0x180 /home/zxli/code/parrot-groundsdk/out/olympe-linux/build/libarsdkctrl/obj/libarsdkctrl/src/arsdk_crashml_itf.c.o
 .text.main_dir_list_complete_cb
                0x000000000000e9a0      0x150 /home/zxli/code/parrot-groundsdk/out/olympe-linux/build/libarsdkctrl/obj/libarsdkctrl/src/arsdk_crashml_itf.c.o
 .text.ftp_single_list_complete_cb
                0x000000000000eaf0      0x38a /home/zxli/code/parrot-groundsdk/out/olympe-linux/build/libarsdkctrl/obj/libarsdkctrl/src/arsdk_crashml_itf.c.o
 *fill*         0x000000000000ee7a        0x6 
 .text.ftp_get_complete_cb
                0x000000000000ee80      0x400 /home/zxli/code/parrot-groundsdk/out/olympe-linux/build/libarsdkctrl/obj/libarsdkctrl/src/arsdk_crashml_itf.c.o
 .text.ftp_del_file_complete
                0x000000000000f280      0x2bf /home/zxli/code/parrot-groundsdk/out/olympe-linux/build/libarsdkctrl/obj/libarsdkctrl/src/arsdk_crashml_itf.c.o
 *fill*         0x000000000000f53f        0x1 
 .text.ftp_del_dir_complete
                0x000000000000f540      0x1dd /home/zxli/code/parrot-groundsdk/out/olympe-linux/build/libarsdkctrl/obj/libarsdkctrl/src/arsdk_crashml_itf.c.o
 *fill*         0x000000000000f71d        0x3 
 .text.arsdk_crashml_itf_new
                0x000000000000f720      0x197 /home/zxli/code/parrot-groundsdk/out/olympe-linux/build/libarsdkctrl/obj/libarsdkctrl/src/arsdk_crashml_itf.c.o
                0x000000000000f720                arsdk_crashml_itf_new
 *fill*         0x000000000000f8b7        0x9 
 .text.arsdk_crashml_itf_create_req
                0x000000000000f8c0      0x3e1 /home/zxli/code/parrot-groundsdk/out/olympe-linux/build/libarsdkctrl/obj/libarsdkctrl/src/arsdk_crashml_itf.c.o
                0x000000000000f8c0                arsdk_crashml_itf_create_req
 *fill*         0x000000000000fca1        0xf 
 .text.arsdk_crashml_req_cancel
                0x000000000000fcb0      0x20a /home/zxli/code/parrot-groundsdk/out/olympe-linux/build/libarsdkctrl/obj/libarsdkctrl/src/arsdk_crashml_itf.c.o
                0x000000000000fcb0                arsdk_crashml_req_cancel
 *fill*         0x000000000000feba        0x6 
 .text.arsdk_crashml_itf_stop
                0x000000000000fec0       0xcd /home/zxli/code/parrot-groundsdk/out/olympe-linux/build/libarsdkctrl/obj/libarsdkctrl/src/arsdk_crashml_itf.c.o
                0x000000000000fec0                arsdk_crashml_itf_stop
 *fill*         0x000000000000ff8d        0x3 
 .text.arsdk_crashml_itf_destroy
                0x000000000000ff90       0x9d /home/zxli/code/parrot-groundsdk/out/olympe-linux/build/libarsdkctrl/obj/libarsdkctrl/src/arsdk_crashml_itf.c.o
                0x000000000000ff90                arsdk_crashml_itf_destroy
 *fill*         0x000000000001002d        0x3 
 .text.arsdk_crashml_itf_cancel_all
                0x0000000000010030       0xb6 /home/zxli/code/parrot-groundsdk/out/olympe-linux/build/libarsdkctrl/obj/libarsdkctrl/src/arsdk_crashml_itf.c.o
                0x0000000000010030                arsdk_crashml_itf_cancel_all
 *fill*         0x00000000000100e6        0xa 
 .text.arsdk_crashml_req_get_dev_type
                0x00000000000100f0        0xf /home/zxli/code/parrot-groundsdk/out/olympe-linux/build/libarsdkctrl/obj/libarsdkctrl/src/arsdk_crashml_itf.c.o
                0x00000000000100f0                arsdk_crashml_req_get_dev_type
 *fill*         0x00000000000100ff        0x1 
 .text.ftp_get_progress_cb
                0x0000000000010100        0x2 /home/zxli/code/parrot-groundsdk/out/olympe-linux/build/libarsdkctrl/obj/libarsdkctrl/src/arsdk_flight_log_itf.c.o
 *fill*         0x0000000000010102        0xe 
 .text.is_flight_log
                0x0000000000010110       0x5f /home/zxli/code/parrot-groundsdk/out/olympe-linux/build/libarsdkctrl/obj/libarsdkctrl/src/arsdk_flight_log_itf.c.o
 *fill*         0x000000000001016f        0x1 
 .text.clean_local_dir
                0x0000000000010170      0x4b5 /home/zxli/code/parrot-groundsdk/out/olympe-linux/build/libarsdkctrl/obj/libarsdkctrl/src/arsdk_flight_log_itf.c.o
 *fill*         0x0000000000010625        0xb 
 .text.ftp_to_flight_log_status
                0x0000000000010630       0x95 /home/zxli/code/parrot-groundsdk/out/olympe-linux/build/libarsdkctrl/obj/libarsdkctrl/src/arsdk_flight_log_itf.c.o
 *fill*         0x00000000000106c5        0xb 
 .text.simple_req_delete
                0x00000000000106d0       0xa5 /home/zxli/code/parrot-groundsdk/out/olympe-linux/build/libarsdkctrl/obj/libarsdkctrl/src/arsdk_flight_log_itf.c.o
 *fill*         0x0000000000010775        0xb 
 .text.unlink_cb
                0x0000000000010780       0x9f /home/zxli/code/parrot-groundsdk/out/olympe-linux/build/libarsdkctrl/obj/libarsdkctrl/src/arsdk_flight_log_itf.c.o
 *fill*         0x000000000001081f        0x1 
 .text.arsdk_flight_log_req_delete
                0x0000000000010820       0xa5 /home/zxli/code/parrot-groundsdk/out/olympe-linux/build/libarsdkctrl/obj/libarsdkctrl/src/arsdk_flight_log_itf.c.o
 *fill*         0x00000000000108c5        0xb 
 .text.req_done
                0x00000000000108d0       0xcd /home/zxli/code/parrot-groundsdk/out/olympe-linux/build/libarsdkctrl/obj/libarsdkctrl/src/arsdk_flight_log_itf.c.o
 *fill*         0x000000000001099d        0x3 
 .text.curr_req_done.isra.6
                0x00000000000109a0      0x142 /home/zxli/code/parrot-groundsdk/out/olympe-linux/build/libarsdkctrl/obj/libarsdkctrl/src/arsdk_flight_log_itf.c.o
 *fill*         0x0000000000010ae2        0xe 
 .text.req_start_next
                0x0000000000010af0      0x40a /home/zxli/code/parrot-groundsdk/out/olympe-linux/build/libarsdkctrl/obj/libarsdkctrl/src/arsdk_flight_log_itf.c.o
 *fill*         0x0000000000010efa        0x6 
 .text.main_log_list_complete_cb
                0x0000000000010f00      0x120 /home/zxli/code/parrot-groundsdk/out/olympe-linux/build/libarsdkctrl/obj/libarsdkctrl/src/arsdk_flight_log_itf.c.o
 .text.ftp_get_complete_cb
                0x0000000000011020      0x282 /home/zxli/code/parrot-groundsdk/out/olympe-linux/build/libarsdkctrl/obj/libarsdkctrl/src/arsdk_flight_log_itf.c.o
 *fill*         0x00000000000112a2        0xe 
 .text.ftp_del_complete
                0x00000000000112b0      0x11d /home/zxli/code/parrot-groundsdk/out/olympe-linux/build/libarsdkctrl/obj/libarsdkctrl/src/arsdk_flight_log_itf.c.o
 *fill*         0x00000000000113cd        0x3 
 .text.arsdk_flight_log_itf_new
                0x00000000000113d0      0x197 /home/zxli/code/parrot-groundsdk/out/olympe-linux/build/libarsdkctrl/obj/libarsdkctrl/src/arsdk_flight_log_itf.c.o
                0x00000000000113d0                arsdk_flight_log_itf_new
 *fill*         0x0000000000011567        0x9 
 .text.arsdk_flight_log_itf_create_req
                0x0000000000011570      0x3d1 /home/zxli/code/parrot-groundsdk/out/olympe-linux/build/libarsdkctrl/obj/libarsdkctrl/src/arsdk_flight_log_itf.c.o
                0x0000000000011570                arsdk_flight_log_itf_create_req
 *fill*         0x0000000000011941        0xf 
 .text.arsdk_flight_log_req_cancel
                0x0000000000011950      0x197 /home/zxli/code/parrot-groundsdk/out/olympe-linux/build/libarsdkctrl/obj/libarsdkctrl/src/arsdk_flight_log_itf.c.o
                0x0000000000011950                arsdk_flight_log_req_cancel
 *fill*         0x0000000000011ae7        0x9 
 .text.arsdk_flight_log_itf_stop
                0x0000000000011af0       0xcd /home/zxli/code/parrot-groundsdk/out/olympe-linux/build/libarsdkctrl/obj/libarsdkctrl/src/arsdk_flight_log_itf.c.o
                0x0000000000011af0                arsdk_flight_log_itf_stop
 *fill*         0x0000000000011bbd        0x3 
 .text.arsdk_flight_log_itf_destroy
                0x0000000000011bc0       0x9d /home/zxli/code/parrot-groundsdk/out/olympe-linux/build/libarsdkctrl/obj/libarsdkctrl/src/arsdk_flight_log_itf.c.o
                0x0000000000011bc0                arsdk_flight_log_itf_destroy
 *fill*         0x0000000000011c5d        0x3 
 .text.arsdk_flight_log_itf_cancel_all
                0x0000000000011c60       0xb6 /home/zxli/code/parrot-groundsdk/out/olympe-linux/build/libarsdkctrl/obj/libarsdkctrl/src/arsdk_flight_log_itf.c.o
                0x0000000000011c60                arsdk_flight_log_itf_cancel_all
 *fill*         0x0000000000011d16        0xa 
 .text.arsdk_flight_log_req_get_dev_type
                0x0000000000011d20        0xf /home/zxli/code/parrot-groundsdk/out/olympe-linux/build/libarsdkctrl/obj/libarsdkctrl/src/arsdk_flight_log_itf.c.o
                0x0000000000011d20                arsdk_flight_log_req_get_dev_type
 *fill*         0x0000000000011d2f        0x1 
 .text.ftp_get_progress_cb
                0x0000000000011d30        0x2 /home/zxli/code/parrot-groundsdk/out/olympe-linux/build/libarsdkctrl/obj/libarsdkctrl/src/arsdk_pud_itf.c.o
 *fill*         0x0000000000011d32        0xe 
 .text.clean_local_dir
                0x0000000000011d40      0x415 /home/zxli/code/parrot-groundsdk/out/olympe-linux/build/libarsdkctrl/obj/libarsdkctrl/src/arsdk_pud_itf.c.o
 *fill*         0x0000000000012155        0xb 
 .text.ftp_to_pud_status
                0x0000000000012160       0x95 /home/zxli/code/parrot-groundsdk/out/olympe-linux/build/libarsdkctrl/obj/libarsdkctrl/src/arsdk_pud_itf.c.o
 *fill*         0x00000000000121f5        0xb 
 .text.simple_req_delete
                0x0000000000012200       0xa5 /home/zxli/code/parrot-groundsdk/out/olympe-linux/build/libarsdkctrl/obj/libarsdkctrl/src/arsdk_pud_itf.c.o
 *fill*         0x00000000000122a5        0xb 
 .text.is_pud_file
                0x00000000000122b0       0xad /home/zxli/code/parrot-groundsdk/out/olympe-linux/build/libarsdkctrl/obj/libarsdkctrl/src/arsdk_pud_itf.c.o
 *fill*         0x000000000001235d        0x3 
 .text.arsdk_pud_req_delete
                0x0000000000012360       0xad /home/zxli/code/parrot-groundsdk/out/olympe-linux/build/libarsdkctrl/obj/libarsdkctrl/src/arsdk_pud_itf.c.o
 *fill*         0x000000000001240d        0x3 
 .text.req_done
                0x0000000000012410       0xcd /home/zxli/code/parrot-groundsdk/out/olympe-linux/build/libarsdkctrl/obj/libarsdkctrl/src/arsdk_pud_itf.c.o
 *fill*         0x00000000000124dd        0x3 
 .text.curr_req_done.isra.6
                0x00000000000124e0      0x142 /home/zxli/code/parrot-groundsdk/out/olympe-linux/build/libarsdkctrl/obj/libarsdkctrl/src/arsdk_pud_itf.c.o
 *fill*         0x0000000000012622        0xe 
 .text.req_start_next
                0x0000000000012630      0x46b /home/zxli/code/parrot-groundsdk/out/olympe-linux/build/libarsdkctrl/obj/libarsdkctrl/src/arsdk_pud_itf.c.o
 *fill*         0x0000000000012a9b        0x5 
 .text.puds_dir_list_complete_cb
                0x0000000000012aa0      0x120 /home/zxli/code/parrot-groundsdk/out/olympe-linux/build/libarsdkctrl/obj/libarsdkctrl/src/arsdk_pud_itf.c.o
 .text.ftp_get_complete_cb
                0x0000000000012bc0      0x28f /home/zxli/code/parrot-groundsdk/out/olympe-linux/build/libarsdkctrl/obj/libarsdkctrl/src/arsdk_pud_itf.c.o
 *fill*         0x0000000000012e4f        0x1 
 .text.ftp_del_file_complete
                0x0000000000012e50      0x12d /home/zxli/code/parrot-groundsdk/out/olympe-linux/build/libarsdkctrl/obj/libarsdkctrl/src/arsdk_pud_itf.c.o
 *fill*         0x0000000000012f7d        0x3 
 .text.arsdk_pud_itf_new
                0x0000000000012f80      0x197 /home/zxli/code/parrot-groundsdk/out/olympe-linux/build/libarsdkctrl/obj/libarsdkctrl/src/arsdk_pud_itf.c.o
                0x0000000000012f80                arsdk_pud_itf_new
 *fill*         0x0000000000013117        0x9 
 .text.arsdk_pud_itf_create_req
                0x0000000000013120      0x411 /home/zxli/code/parrot-groundsdk/out/olympe-linux/build/libarsdkctrl/obj/libarsdkctrl/src/arsdk_pud_itf.c.o
                0x0000000000013120                arsdk_pud_itf_create_req
 *fill*         0x0000000000013531        0xf 
 .text.arsdk_pud_req_cancel
                0x0000000000013540      0x197 /home/zxli/code/parrot-groundsdk/out/olympe-linux/build/libarsdkctrl/obj/libarsdkctrl/src/arsdk_pud_itf.c.o
                0x0000000000013540                arsdk_pud_req_cancel
 *fill*         0x00000000000136d7        0x9 
 .text.arsdk_pud_itf_stop
                0x00000000000136e0       0xcd /home/zxli/code/parrot-groundsdk/out/olympe-linux/build/libarsdkctrl/obj/libarsdkctrl/src/arsdk_pud_itf.c.o
                0x00000000000136e0                arsdk_pud_itf_stop
 *fill*         0x00000000000137ad        0x3 
 .text.arsdk_pud_itf_destroy
                0x00000000000137b0       0x9d /home/zxli/code/parrot-groundsdk/out/olympe-linux/build/libarsdkctrl/obj/libarsdkctrl/src/arsdk_pud_itf.c.o
                0x00000000000137b0                arsdk_pud_itf_destroy
 *fill*         0x000000000001384d        0x3 
 .text.arsdk_pud_itf_cancel_all
                0x0000000000013850       0xb6 /home/zxli/code/parrot-groundsdk/out/olympe-linux/build/libarsdkctrl/obj/libarsdkctrl/src/arsdk_pud_itf.c.o
                0x0000000000013850                arsdk_pud_itf_cancel_all
 *fill*         0x0000000000013906        0xa 
 .text.arsdk_pud_req_get_dev_type
                0x0000000000013910        0xf /home/zxli/code/parrot-groundsdk/out/olympe-linux/build/libarsdkctrl/obj/libarsdkctrl/src/arsdk_pud_itf.c.o
                0x0000000000013910                arsdk_pud_req_get_dev_type
 *fill*         0x000000000001391f        0x1 
 .text.md5_get_progress
                0x0000000000013920        0x2 /home/zxli/code/parrot-groundsdk/out/olympe-linux/build/libarsdkctrl/obj/libarsdkctrl/src/arsdk_ephemeris_itf.c.o
 *fill*         0x0000000000013922        0xe 
 .text.ftp_to_ephemeris_status
                0x0000000000013930       0x95 /home/zxli/code/parrot-groundsdk/out/olympe-linux/build/libarsdkctrl/obj/libarsdkctrl/src/arsdk_ephemeris_itf.c.o
 *fill*         0x00000000000139c5        0xb 
 .text.put_progress
                0x00000000000139d0       0x8d /home/zxli/code/parrot-groundsdk/out/olympe-linux/build/libarsdkctrl/obj/libarsdkctrl/src/arsdk_ephemeris_itf.c.o
 *fill*         0x0000000000013a5d        0x3 
 .text.arsdk_ephemeris_destroy_req_upload
                0x0000000000013a60       0xad /home/zxli/code/parrot-groundsdk/out/olympe-linux/build/libarsdkctrl/obj/libarsdkctrl/src/arsdk_ephemeris_itf.c.o
 *fill*         0x0000000000013b0d        0x3 
 .text.req_done
                0x0000000000013b10       0xbc /home/zxli/code/parrot-groundsdk/out/olympe-linux/build/libarsdkctrl/obj/libarsdkctrl/src/arsdk_ephemeris_itf.c.o
 *fill*         0x0000000000013bcc        0x4 
 .text.md5_get_complete
                0x0000000000013bd0      0x27d /home/zxli/code/parrot-groundsdk/out/olympe-linux/build/libarsdkctrl/obj/libarsdkctrl/src/arsdk_ephemeris_itf.c.o
 *fill*         0x0000000000013e4d        0x3 
 .text.put_complete
                0x0000000000013e50      0x110 /home/zxli/code/parrot-groundsdk/out/olympe-linux/build/libarsdkctrl/obj/libarsdkctrl/src/arsdk_ephemeris_itf.c.o
 .text.arsdk_ephemeris_itf_new
                0x0000000000013f60      0x197 /home/zxli/code/parrot-groundsdk/out/olympe-linux/build/libarsdkctrl/obj/libarsdkctrl/src/arsdk_ephemeris_itf.c.o
                0x0000000000013f60                arsdk_ephemeris_itf_new
 *fill*         0x00000000000140f7        0x9 
 .text.arsdk_ephemeris_itf_create_req_upload
                0x0000000000014100      0x495 /home/zxli/code/parrot-groundsdk/out/olympe-linux/build/libarsdkctrl/obj/libarsdkctrl/src/arsdk_ephemeris_itf.c.o
                0x0000000000014100                arsdk_ephemeris_itf_create_req_upload
 *fill*         0x0000000000014595        0xb 
 .text.arsdk_ephemeris_req_upload_cancel
                0x00000000000145a0       0xff /home/zxli/code/parrot-groundsdk/out/olympe-linux/build/libarsdkctrl/obj/libarsdkctrl/src/arsdk_ephemeris_itf.c.o
                0x00000000000145a0                arsdk_ephemeris_req_upload_cancel
 *fill*         0x000000000001469f        0x1 
 .text.arsdk_ephemeris_itf_stop
                0x00000000000146a0       0xcd /home/zxli/code/parrot-groundsdk/out/olympe-linux/build/libarsdkctrl/obj/libarsdkctrl/src/arsdk_ephemeris_itf.c.o
                0x00000000000146a0                arsdk_ephemeris_itf_stop
 *fill*         0x000000000001476d        0x3 
 .text.arsdk_ephemeris_itf_destroy
                0x0000000000014770       0x9d /home/zxli/code/parrot-groundsdk/out/olympe-linux/build/libarsdkctrl/obj/libarsdkctrl/src/arsdk_ephemeris_itf.c.o
                0x0000000000014770                arsdk_ephemeris_itf_destroy
 *fill*         0x000000000001480d        0x3 
 .text.arsdk_ephemeris_itf_cancel_all
                0x0000000000014810       0xbe /home/zxli/code/parrot-groundsdk/out/olympe-linux/build/libarsdkctrl/obj/libarsdkctrl/src/arsdk_ephemeris_itf.c.o
                0x0000000000014810                arsdk_ephemeris_itf_cancel_all
 *fill*         0x00000000000148ce        0x2 
 .text.arsdk_ephemeris_req_upload_get_dev_type
                0x00000000000148d0        0xf /home/zxli/code/parrot-groundsdk/out/olympe-linux/build/libarsdkctrl/obj/libarsdkctrl/src/arsdk_ephemeris_itf.c.o
                0x00000000000148d0                arsdk_ephemeris_req_upload_get_dev_type
 *fill*         0x00000000000148df        0x1 
 .text.arsdk_ephemeris_req_upload_get_file_path
                0x00000000000148e0       0x13 /home/zxli/code/parrot-groundsdk/out/olympe-linux/build/libarsdkctrl/obj/libarsdkctrl/src/arsdk_ephemeris_itf.c.o
                0x00000000000148e0                arsdk_ephemeris_req_upload_get_file_path
 *fill*         0x00000000000148f3        0xd 
 .text.body     0x0000000000014900      0x773 /home/zxli/code/parrot-groundsdk/out/olympe-linux/build/libarsdkctrl/obj/libarsdkctrl/src/arsdk_md5.c.o
 *fill*         0x0000000000015073        0xd 
 .text.arsdk_md5_update
                0x0000000000015080      0x1f4 /home/zxli/code/parrot-groundsdk/out/olympe-linux/build/libarsdkctrl/obj/libarsdkctrl/src/arsdk_md5.c.o
                0x0000000000015080                arsdk_md5_update
 *fill*         0x0000000000015274        0xc 
 .text.arsdk_md5_final
                0x0000000000015280      0x253 /home/zxli/code/parrot-groundsdk/out/olympe-linux/build/libarsdkctrl/obj/libarsdkctrl/src/arsdk_md5.c.o
                0x0000000000015280                arsdk_md5_final
 *fill*         0x00000000000154d3        0xd 
 .text.arsdk_md5_compute
                0x00000000000154e0      0x137 /home/zxli/code/parrot-groundsdk/out/olympe-linux/build/libarsdkctrl/obj/libarsdkctrl/src/arsdk_md5.c.o
                0x00000000000154e0                arsdk_md5_compute
 *fill*         0x0000000000015617        0x9 
 .text.arsdk_md5_to_str
                0x0000000000015620       0x87 /home/zxli/code/parrot-groundsdk/out/olympe-linux/build/libarsdkctrl/obj/libarsdkctrl/src/arsdk_md5.c.o
                0x0000000000015620                arsdk_md5_to_str
 *fill*         0x00000000000156a7        0x9 
 .text.arsdk_updater_transport_new
                0x00000000000156b0      0x304 /home/zxli/code/parrot-groundsdk/out/olympe-linux/build/libarsdkctrl/obj/libarsdkctrl/src/updater/arsdk_updater_transport.c.o
                0x00000000000156b0                arsdk_updater_transport_new
 *fill*         0x00000000000159b4        0xc 
 .text.arsdk_updater_transport_stop
                0x00000000000159c0       0x86 /home/zxli/code/parrot-groundsdk/out/olympe-linux/build/libarsdkctrl/obj/libarsdkctrl/src/updater/arsdk_updater_transport.c.o
                0x00000000000159c0                arsdk_updater_transport_stop
 *fill*         0x0000000000015a46        0xa 
 .text.arsdk_updater_transport_destroy
                0x0000000000015a50       0x9d /home/zxli/code/parrot-groundsdk/out/olympe-linux/build/libarsdkctrl/obj/libarsdkctrl/src/updater/arsdk_updater_transport.c.o
                0x0000000000015a50                arsdk_updater_transport_destroy
 *fill*         0x0000000000015aed        0x3 
 .text.arsdk_updater_transport_create_req_upload
                0x0000000000015af0       0x86 /home/zxli/code/parrot-groundsdk/out/olympe-linux/build/libarsdkctrl/obj/libarsdkctrl/src/updater/arsdk_updater_transport.c.o
                0x0000000000015af0                arsdk_updater_transport_create_req_upload
 *fill*         0x0000000000015b76        0xa 
 .text.arsdk_updater_transport_req_upload_cancel
                0x0000000000015b80       0xda /home/zxli/code/parrot-groundsdk/out/olympe-linux/build/libarsdkctrl/obj/libarsdkctrl/src/updater/arsdk_updater_transport.c.o
                0x0000000000015b80                arsdk_updater_transport_req_upload_cancel
 *fill*         0x0000000000015c5a        0x6 
 .text.arsdk_updater_transport_get_child
                0x0000000000015c60       0x13 /home/zxli/code/parrot-groundsdk/out/olympe-linux/build/libarsdkctrl/obj/libarsdkctrl/src/updater/arsdk_updater_transport.c.o
                0x0000000000015c60                arsdk_updater_transport_get_child
 *fill*         0x0000000000015c73        0xd 
 .text.arsdk_updater_transport_get_itf
                0x0000000000015c80       0x13 /home/zxli/code/parrot-groundsdk/out/olympe-linux/build/libarsdkctrl/obj/libarsdkctrl/src/updater/arsdk_updater_transport.c.o
                0x0000000000015c80                arsdk_updater_transport_get_itf
 *fill*         0x0000000000015c93        0xd 
 .text.update_put_progress_cb
                0x0000000000015ca0      0x20d /home/zxli/code/parrot-groundsdk/out/olympe-linux/build/libarsdkctrl/obj/libarsdkctrl/src/updater/arsdk_updater_transport_ftp.c.o
 *fill*         0x0000000000015ead        0x3 
 .text.ftp_to_updater_status
                0x0000000000015eb0       0x95 /home/zxli/code/parrot-groundsdk/out/olympe-linux/build/libarsdkctrl/obj/libarsdkctrl/src/updater/arsdk_updater_transport_ftp.c.o
 *fill*         0x0000000000015f45        0xb 
 .text.arsdk_updater_req_upload_destroy
                0x0000000000015f50       0xfa /home/zxli/code/parrot-groundsdk/out/olympe-linux/build/libarsdkctrl/obj/libarsdkctrl/src/updater/arsdk_updater_transport_ftp.c.o
 *fill*         0x000000000001604a        0x6 
 .text.update_upload_complete
                0x0000000000016050      0x18d /home/zxli/code/parrot-groundsdk/out/olympe-linux/build/libarsdkctrl/obj/libarsdkctrl/src/updater/arsdk_updater_transport_ftp.c.o
 *fill*         0x00000000000161dd        0x3 
 .text.update_rename_complete_cb
                0x00000000000161e0       0xad /home/zxli/code/parrot-groundsdk/out/olympe-linux/build/libarsdkctrl/obj/libarsdkctrl/src/updater/arsdk_updater_transport_ftp.c.o
 *fill*         0x000000000001628d        0x3 
 .text.arsdk_updater_transport_ftp_new
                0x0000000000016290      0x17b /home/zxli/code/parrot-groundsdk/out/olympe-linux/build/libarsdkctrl/obj/libarsdkctrl/src/updater/arsdk_updater_transport_ftp.c.o
                0x0000000000016290                arsdk_updater_transport_ftp_new
 *fill*         0x000000000001640b        0x5 
 .text.arsdk_updater_ftp_req_upload_cancel
                0x0000000000016410       0xad /home/zxli/code/parrot-groundsdk/out/olympe-linux/build/libarsdkctrl/obj/libarsdkctrl/src/updater/arsdk_updater_transport_ftp.c.o
                0x0000000000016410                arsdk_updater_ftp_req_upload_cancel
 *fill*         0x00000000000164bd        0x3 
 .text.cancel_req_upload_cb
                0x00000000000164c0       0x18 /home/zxli/code/parrot-groundsdk/out/olympe-linux/build/libarsdkctrl/obj/libarsdkctrl/src/updater/arsdk_updater_transport_ftp.c.o
 *fill*         0x00000000000164d8        0x8 
 .text.arsdk_updater_transport_ftp_stop
                0x00000000000164e0       0xcd /home/zxli/code/parrot-groundsdk/out/olympe-linux/build/libarsdkctrl/obj/libarsdkctrl/src/updater/arsdk_updater_transport_ftp.c.o
                0x00000000000164e0                arsdk_updater_transport_ftp_stop
 *fill*         0x00000000000165ad        0x3 
 .text.stop_cb  0x00000000000165b0       0x15 /home/zxli/code/parrot-groundsdk/out/olympe-linux/build/libarsdkctrl/obj/libarsdkctrl/src/updater/arsdk_updater_transport_ftp.c.o
 *fill*         0x00000000000165c5        0xb 
 .text.arsdk_updater_transport_ftp_destroy
                0x00000000000165d0       0x9d /home/zxli/code/parrot-groundsdk/out/olympe-linux/build/libarsdkctrl/obj/libarsdkctrl/src/updater/arsdk_updater_transport_ftp.c.o
                0x00000000000165d0                arsdk_updater_transport_ftp_destroy
 *fill*         0x000000000001666d        0x3 
 .text.arsdk_updater_transport_ftp_cancel_all
                0x0000000000016670       0xb6 /home/zxli/code/parrot-groundsdk/out/olympe-linux/build/libarsdkctrl/obj/libarsdkctrl/src/updater/arsdk_updater_transport_ftp.c.o
                0x0000000000016670                arsdk_updater_transport_ftp_cancel_all
 *fill*         0x0000000000016726        0xa 
 .text.cancel_all_cb
                0x0000000000016730       0x15 /home/zxli/code/parrot-groundsdk/out/olympe-linux/build/libarsdkctrl/obj/libarsdkctrl/src/updater/arsdk_updater_transport_ftp.c.o
 *fill*         0x0000000000016745        0xb 
 .text.update_put_complete_cb
                0x0000000000016750      0x1e5 /home/zxli/code/parrot-groundsdk/out/olympe-linux/build/libarsdkctrl/obj/libarsdkctrl/src/updater/arsdk_updater_transport_ftp.c.o
 *fill*         0x0000000000016935        0xb 
 .text.arsdk_updater_transport_ftp_create_req_upload
                0x0000000000016940      0x5a5 /home/zxli/code/parrot-groundsdk/out/olympe-linux/build/libarsdkctrl/obj/libarsdkctrl/src/updater/arsdk_updater_transport_ftp.c.o
                0x0000000000016940                arsdk_updater_transport_ftp_create_req_upload
 *fill*         0x0000000000016ee5        0xb 
 .text.create_req_upload_cb
                0x0000000000016ef0       0xb9 /home/zxli/code/parrot-groundsdk/out/olympe-linux/build/libarsdkctrl/obj/libarsdkctrl/src/updater/arsdk_updater_transport_ftp.c.o
 *fill*         0x0000000000016fa9        0x7 
 .text.arsdk_updater_transport_ftp_get_parent
                0x0000000000016fb0       0x13 /home/zxli/code/parrot-groundsdk/out/olympe-linux/build/libarsdkctrl/obj/libarsdkctrl/src/updater/arsdk_updater_transport_ftp.c.o
                0x0000000000016fb0                arsdk_updater_transport_ftp_get_parent
 *fill*         0x0000000000016fc3        0xd 
 .text.updater_mux_write_msg
                0x0000000000016fd0      0x1ef /home/zxli/code/parrot-groundsdk/out/olympe-linux/build/libarsdkctrl/obj/libarsdkctrl/src/updater/arsdk_updater_transport_mux.c.o
 *fill*         0x00000000000171bf        0x1 
 .text.updater_mux_send_next_chunk
                0x00000000000171c0      0x199 /home/zxli/code/parrot-groundsdk/out/olympe-linux/build/libarsdkctrl/obj/libarsdkctrl/src/updater/arsdk_updater_transport_mux.c.o
 *fill*         0x0000000000017359        0x7 
 .text.arsdk_updater_req_upload_destroy
                0x0000000000017360       0xa5 /home/zxli/code/parrot-groundsdk/out/olympe-linux/build/libarsdkctrl/obj/libarsdkctrl/src/updater/arsdk_updater_transport_mux.c.o
 *fill*         0x0000000000017405        0xb 
 .text.update_mux_notify_status
                0x0000000000017410      0x19d /home/zxli/code/parrot-groundsdk/out/olympe-linux/build/libarsdkctrl/obj/libarsdkctrl/src/updater/arsdk_updater_transport_mux.c.o
 *fill*         0x00000000000175ad        0x3 
 .text.update_mux_channel_cb
                0x00000000000175b0      0x678 /home/zxli/code/parrot-groundsdk/out/olympe-linux/build/libarsdkctrl/obj/libarsdkctrl/src/updater/arsdk_updater_transport_mux.c.o
 *fill*         0x0000000000017c28        0x8 
 .text.arsdk_updater_transport_mux_new
                0x0000000000017c30      0x18b /home/zxli/code/parrot-groundsdk/out/olympe-linux/build/libarsdkctrl/obj/libarsdkctrl/src/updater/arsdk_updater_transport_mux.c.o
                0x0000000000017c30                arsdk_updater_transport_mux_new
 *fill*         0x0000000000017dbb        0x5 
 .text.arsdk_updater_mux_req_upload_cancel
                0x0000000000017dc0       0x95 /home/zxli/code/parrot-groundsdk/out/olympe-linux/build/libarsdkctrl/obj/libarsdkctrl/src/updater/arsdk_updater_transport_mux.c.o
                0x0000000000017dc0                arsdk_updater_mux_req_upload_cancel
 *fill*         0x0000000000017e55        0xb 
 .text.cancel_req_upload_cb
                0x0000000000017e60       0x18 /home/zxli/code/parrot-groundsdk/out/olympe-linux/build/libarsdkctrl/obj/libarsdkctrl/src/updater/arsdk_updater_transport_mux.c.o
 *fill*         0x0000000000017e78        0x8 
 .text.arsdk_updater_transport_mux_stop
                0x0000000000017e80       0xcd /home/zxli/code/parrot-groundsdk/out/olympe-linux/build/libarsdkctrl/obj/libarsdkctrl/src/updater/arsdk_updater_transport_mux.c.o
                0x0000000000017e80                arsdk_updater_transport_mux_stop
 *fill*         0x0000000000017f4d        0x3 
 .text.stop_cb  0x0000000000017f50       0x15 /home/zxli/code/parrot-groundsdk/out/olympe-linux/build/libarsdkctrl/obj/libarsdkctrl/src/updater/arsdk_updater_transport_mux.c.o
 *fill*         0x0000000000017f65        0xb 
 .text.arsdk_updater_transport_mux_destroy
                0x0000000000017f70       0x9d /home/zxli/code/parrot-groundsdk/out/olympe-linux/build/libarsdkctrl/obj/libarsdkctrl/src/updater/arsdk_updater_transport_mux.c.o
                0x0000000000017f70                arsdk_updater_transport_mux_destroy
 *fill*         0x000000000001800d        0x3 
 .text.arsdk_updater_transport_mux_cancel_all
                0x0000000000018010       0xb6 /home/zxli/code/parrot-groundsdk/out/olympe-linux/build/libarsdkctrl/obj/libarsdkctrl/src/updater/arsdk_updater_transport_mux.c.o
                0x0000000000018010                arsdk_updater_transport_mux_cancel_all
 *fill*         0x00000000000180c6        0xa 
 .text.cancel_all_cb
                0x00000000000180d0       0x15 /home/zxli/code/parrot-groundsdk/out/olympe-linux/build/libarsdkctrl/obj/libarsdkctrl/src/updater/arsdk_updater_transport_mux.c.o
 *fill*         0x00000000000180e5        0xb 
 .text.arsdk_updater_transport_mux_create_req_upload
                0x00000000000180f0      0x545 /home/zxli/code/parrot-groundsdk/out/olympe-linux/build/libarsdkctrl/obj/libarsdkctrl/src/updater/arsdk_updater_transport_mux.c.o
                0x00000000000180f0                arsdk_updater_transport_mux_create_req_upload
 *fill*         0x0000000000018635        0xb 
 .text.create_req_upload_cb
                0x0000000000018640       0x98 /home/zxli/code/parrot-groundsdk/out/olympe-linux/build/libarsdkctrl/obj/libarsdkctrl/src/updater/arsdk_updater_transport_mux.c.o
 *fill*         0x00000000000186d8        0x8 
 .text.arsdk_updater_transport_mux_get_parent
                0x00000000000186e0       0x13 /home/zxli/code/parrot-groundsdk/out/olympe-linux/build/libarsdkctrl/obj/libarsdkctrl/src/updater/arsdk_updater_transport_mux.c.o
                0x00000000000186e0                arsdk_updater_transport_mux_get_parent
 *fill*         0x00000000000186f3        0xd 
 .text.default_read_data
                0x0000000000018700        0x4 /home/zxli/code/parrot-groundsdk/out/olympe-linux/build/libarsdkctrl/obj/libarsdkctrl/src/arsdk_ftp_itf.c.o
 *fill*         0x0000000000018704        0xc 
 .text.default_progress
                0x0000000000018710        0x2 /home/zxli/code/parrot-groundsdk/out/olympe-linux/build/libarsdkctrl/obj/libarsdkctrl/src/arsdk_ftp_itf.c.o
 *fill*         0x0000000000018712        0xe 
 .text.req_read_data_cb
                0x0000000000018720       0x16 /home/zxli/code/parrot-groundsdk/out/olympe-linux/build/libarsdkctrl/obj/libarsdkctrl/src/arsdk_ftp_itf.c.o
 *fill*         0x0000000000018736        0xa 
 .text.req_write_data_cb
                0x0000000000018740       0x16 /home/zxli/code/parrot-groundsdk/out/olympe-linux/build/libarsdkctrl/obj/libarsdkctrl/src/arsdk_ftp_itf.c.o
 *fill*         0x0000000000018756        0xa 
 .text.req_progress_cb
                0x0000000000018760       0x1a /home/zxli/code/parrot-groundsdk/out/olympe-linux/build/libarsdkctrl/obj/libarsdkctrl/src/arsdk_ftp_itf.c.o
 *fill*         0x000000000001877a        0x6 
 .text.idle_req_start_cb
                0x0000000000018780       0x3a /home/zxli/code/parrot-groundsdk/out/olympe-linux/build/libarsdkctrl/obj/libarsdkctrl/src/arsdk_ftp_itf.c.o
 *fill*         0x00000000000187ba        0x6 
 .text.req_get_complete
                0x00000000000187c0       0x19 /home/zxli/code/parrot-groundsdk/out/olympe-linux/build/libarsdkctrl/obj/libarsdkctrl/src/arsdk_ftp_itf.c.o
 *fill*         0x00000000000187d9        0x7 
 .text.req_put_progress
                0x00000000000187e0       0x72 /home/zxli/code/parrot-groundsdk/out/olympe-linux/build/libarsdkctrl/obj/libarsdkctrl/src/arsdk_ftp_itf.c.o
 *fill*         0x0000000000018852        0xe 
 .text.req_put_complete
                0x0000000000018860       0x19 /home/zxli/code/parrot-groundsdk/out/olympe-linux/build/libarsdkctrl/obj/libarsdkctrl/src/arsdk_ftp_itf.c.o
 *fill*         0x0000000000018879        0x7 
 .text.size_read_data
                0x0000000000018880        0x4 /home/zxli/code/parrot-groundsdk/out/olympe-linux/build/libarsdkctrl/obj/libarsdkctrl/src/arsdk_ftp_itf.c.o
 *fill*         0x0000000000018884        0xc 
 .text.size_progress
                0x0000000000018890        0x2 /home/zxli/code/parrot-groundsdk/out/olympe-linux/build/libarsdkctrl/obj/libarsdkctrl/src/arsdk_ftp_itf.c.o
 *fill*         0x0000000000018892        0xe 
 .text.req_delete_complete
                0x00000000000188a0       0x19 /home/zxli/code/parrot-groundsdk/out/olympe-linux/build/libarsdkctrl/obj/libarsdkctrl/src/arsdk_ftp_itf.c.o
 *fill*         0x00000000000188b9        0x7 
 .text.req_rename_complete
                0x00000000000188c0       0x19 /home/zxli/code/parrot-groundsdk/out/olympe-linux/build/libarsdkctrl/obj/libarsdkctrl/src/arsdk_ftp_itf.c.o
 *fill*         0x00000000000188d9        0x7 
 .text.req_get_write_data
                0x00000000000188e0      0x107 /home/zxli/code/parrot-groundsdk/out/olympe-linux/build/libarsdkctrl/obj/libarsdkctrl/src/arsdk_ftp_itf.c.o
 *fill*         0x00000000000189e7        0x9 
 .text.req_list_write_data
                0x00000000000189f0      0x14d /home/zxli/code/parrot-groundsdk/out/olympe-linux/build/libarsdkctrl/obj/libarsdkctrl/src/arsdk_ftp_itf.c.o
 *fill*         0x0000000000018b3d        0x3 
 .text.req_get_progress
                0x0000000000018b40      0x1eb /home/zxli/code/parrot-groundsdk/out/olympe-linux/build/libarsdkctrl/obj/libarsdkctrl/src/arsdk_ftp_itf.c.o
 *fill*         0x0000000000018d2b        0x5 
 .text.req_destroy
                0x0000000000018d30      0x188 /home/zxli/code/parrot-groundsdk/out/olympe-linux/build/libarsdkctrl/obj/libarsdkctrl/src/arsdk_ftp_itf.c.o
 *fill*         0x0000000000018eb8        0x8 
 .text.req_new  0x0000000000018ec0      0x533 /home/zxli/code/parrot-groundsdk/out/olympe-linux/build/libarsdkctrl/obj/libarsdkctrl/src/arsdk_ftp_itf.c.o
 *fill*         0x00000000000193f3        0xd 
 .text.size_complete
                0x0000000000019400      0x12c /home/zxli/code/parrot-groundsdk/out/olympe-linux/build/libarsdkctrl/obj/libarsdkctrl/src/arsdk_ftp_itf.c.o
 *fill*         0x000000000001952c        0x4 
 .text.socket_cb
                0x0000000000019530       0x79 /home/zxli/code/parrot-groundsdk/out/olympe-linux/build/libarsdkctrl/obj/libarsdkctrl/src/arsdk_ftp_itf.c.o
 *fill*         0x00000000000195a9        0x7 
 .text.req_complete_cb
                0x00000000000195b0       0xbd /home/zxli/code/parrot-groundsdk/out/olympe-linux/build/libarsdkctrl/obj/libarsdkctrl/src/arsdk_ftp_itf.c.o
 *fill*         0x000000000001966d        0x3 
 .text.mux_proxy_close_cb
                0x0000000000019670       0x7d /home/zxli/code/parrot-groundsdk/out/olympe-linux/build/libarsdkctrl/obj/libarsdkctrl/src/arsdk_ftp_itf.c.o
 *fill*         0x00000000000196ed        0x3 
 .text.mux_proxy_open_cb
                0x00000000000196f0       0xa4 /home/zxli/code/parrot-groundsdk/out/olympe-linux/build/libarsdkctrl/obj/libarsdkctrl/src/arsdk_ftp_itf.c.o
 *fill*         0x0000000000019794        0xc 
 .text.get_url.isra.5
                0x00000000000197a0       0x90 /home/zxli/code/parrot-groundsdk/out/olympe-linux/build/libarsdkctrl/obj/libarsdkctrl/src/arsdk_ftp_itf.c.o
 .text.req_get_start
                0x0000000000019830       0x7f /home/zxli/code/parrot-groundsdk/out/olympe-linux/build/libarsdkctrl/obj/libarsdkctrl/src/arsdk_ftp_itf.c.o
 *fill*         0x00000000000198af        0x1 
 .text.req_put_start
                0x00000000000198b0      0x117 /home/zxli/code/parrot-groundsdk/out/olympe-linux/build/libarsdkctrl/obj/libarsdkctrl/src/arsdk_ftp_itf.c.o
 *fill*         0x00000000000199c7        0x9 
 .text.req_delete_start
                0x00000000000199d0       0x7f /home/zxli/code/parrot-groundsdk/out/olympe-linux/build/libarsdkctrl/obj/libarsdkctrl/src/arsdk_ftp_itf.c.o
 *fill*         0x0000000000019a4f        0x1 
 .text.req_rename_start
                0x0000000000019a50       0x7f /home/zxli/code/parrot-groundsdk/out/olympe-linux/build/libarsdkctrl/obj/libarsdkctrl/src/arsdk_ftp_itf.c.o
 *fill*         0x0000000000019acf        0x1 
 .text.req_list_start
                0x0000000000019ad0       0x7f /home/zxli/code/parrot-groundsdk/out/olympe-linux/build/libarsdkctrl/obj/libarsdkctrl/src/arsdk_ftp_itf.c.o
 *fill*         0x0000000000019b4f        0x1 
 .text.arsdk_ftp_req_delete_destroy
                0x0000000000019b50       0x8d /home/zxli/code/parrot-groundsdk/out/olympe-linux/build/libarsdkctrl/obj/libarsdkctrl/src/arsdk_ftp_itf.c.o
 *fill*         0x0000000000019bdd        0x3 
 .text.req_delete_destroy
                0x0000000000019be0        0x9 /home/zxli/code/parrot-groundsdk/out/olympe-linux/build/libarsdkctrl/obj/libarsdkctrl/src/arsdk_ftp_itf.c.o
 *fill*         0x0000000000019be9        0x7 
 .text.arsdk_ftp_req_rename_destroy
                0x0000000000019bf0       0x95 /home/zxli/code/parrot-groundsdk/out/olympe-linux/build/libarsdkctrl/obj/libarsdkctrl/src/arsdk_ftp_itf.c.o
 *fill*         0x0000000000019c85        0xb 
 .text.req_rename_destroy
                0x0000000000019c90        0x9 /home/zxli/code/parrot-groundsdk/out/olympe-linux/build/libarsdkctrl/obj/libarsdkctrl/src/arsdk_ftp_itf.c.o
 *fill*         0x0000000000019c99        0x7 
 .text.arsdk_ftp_req_get_destroy
                0x0000000000019ca0       0xb5 /home/zxli/code/parrot-groundsdk/out/olympe-linux/build/libarsdkctrl/obj/libarsdkctrl/src/arsdk_ftp_itf.c.o
 *fill*         0x0000000000019d55        0xb 
 .text.req_get_destroy
                0x0000000000019d60        0x9 /home/zxli/code/parrot-groundsdk/out/olympe-linux/build/libarsdkctrl/obj/libarsdkctrl/src/arsdk_ftp_itf.c.o
 *fill*         0x0000000000019d69        0x7 
 .text.arsdk_ftp_req_put_destroy
                0x0000000000019d70       0xb5 /home/zxli/code/parrot-groundsdk/out/olympe-linux/build/libarsdkctrl/obj/libarsdkctrl/src/arsdk_ftp_itf.c.o
 *fill*         0x0000000000019e25        0xb 
 .text.req_put_destroy
                0x0000000000019e30        0x9 /home/zxli/code/parrot-groundsdk/out/olympe-linux/build/libarsdkctrl/obj/libarsdkctrl/src/arsdk_ftp_itf.c.o
 *fill*         0x0000000000019e39        0x7 
 .text.create_req_put
                0x0000000000019e40      0x586 /home/zxli/code/parrot-groundsdk/out/olympe-linux/build/libarsdkctrl/obj/libarsdkctrl/src/arsdk_ftp_itf.c.o
 *fill*         0x000000000001a3c6        0xa 
 .text.req_put_read_data
                0x000000000001a3d0      0x1af /home/zxli/code/parrot-groundsdk/out/olympe-linux/build/libarsdkctrl/obj/libarsdkctrl/src/arsdk_ftp_itf.c.o
 *fill*         0x000000000001a57f        0x1 
 .text.size_write_data
                0x000000000001a580        0x4 /home/zxli/code/parrot-groundsdk/out/olympe-linux/build/libarsdkctrl/obj/libarsdkctrl/src/arsdk_ftp_itf.c.o
 *fill*         0x000000000001a584        0xc 
 .text.default_write_data
                0x000000000001a590        0x4 /home/zxli/code/parrot-groundsdk/out/olympe-linux/build/libarsdkctrl/obj/libarsdkctrl/src/arsdk_ftp_itf.c.o
 *fill*         0x000000000001a594        0xc 
 .text.arsdk_ftp_itf_stop
                0x000000000001a5a0      0x10d /home/zxli/code/parrot-groundsdk/out/olympe-linux/build/libarsdkctrl/obj/libarsdkctrl/src/arsdk_ftp_itf.c.o
                0x000000000001a5a0                arsdk_ftp_itf_stop
 *fill*         0x000000000001a6ad        0x3 
 .text.arsdk_ftp_itf_destroy
                0x000000000001a6b0      0x145 /home/zxli/code/parrot-groundsdk/out/olympe-linux/build/libarsdkctrl/obj/libarsdkctrl/src/arsdk_ftp_itf.c.o
                0x000000000001a6b0                arsdk_ftp_itf_destroy
 *fill*         0x000000000001a7f5        0xb 
 .text.arsdk_ftp_itf_new
                0x000000000001a800      0x349 /home/zxli/code/parrot-groundsdk/out/olympe-linux/build/libarsdkctrl/obj/libarsdkctrl/src/arsdk_ftp_itf.c.o
                0x000000000001a800                arsdk_ftp_itf_new
 *fill*         0x000000000001ab49        0x7 
 .text.arsdk_ftp_itf_cancel_all
                0x000000000001ab50       0x8d /home/zxli/code/parrot-groundsdk/out/olympe-linux/build/libarsdkctrl/obj/libarsdkctrl/src/arsdk_ftp_itf.c.o
                0x000000000001ab50                arsdk_ftp_itf_cancel_all
 *fill*         0x000000000001abdd        0x3 
 .text.arsdk_ftp_itf_create_req_get
                0x000000000001abe0      0x5a0 /home/zxli/code/parrot-groundsdk/out/olympe-linux/build/libarsdkctrl/obj/libarsdkctrl/src/arsdk_ftp_itf.c.o
                0x000000000001abe0                arsdk_ftp_itf_create_req_get
 .text.arsdk_ftp_req_get_cancel
                0x000000000001b180      0x13d /home/zxli/code/parrot-groundsdk/out/olympe-linux/build/libarsdkctrl/obj/libarsdkctrl/src/arsdk_ftp_itf.c.o
                0x000000000001b180                arsdk_ftp_req_get_cancel
 *fill*         0x000000000001b2bd        0x3 
 .text.arsdk_ftp_req_get_get_remote_path
                0x000000000001b2c0       0x13 /home/zxli/code/parrot-groundsdk/out/olympe-linux/build/libarsdkctrl/obj/libarsdkctrl/src/arsdk_ftp_itf.c.o
                0x000000000001b2c0                arsdk_ftp_req_get_get_remote_path
 *fill*         0x000000000001b2d3        0xd 
 .text.arsdk_ftp_req_get_get_local_path
                0x000000000001b2e0       0x13 /home/zxli/code/parrot-groundsdk/out/olympe-linux/build/libarsdkctrl/obj/libarsdkctrl/src/arsdk_ftp_itf.c.o
                0x000000000001b2e0                arsdk_ftp_req_get_get_local_path
 *fill*         0x000000000001b2f3        0xd 
 .text.arsdk_ftp_req_get_get_buffer
                0x000000000001b300       0x13 /home/zxli/code/parrot-groundsdk/out/olympe-linux/build/libarsdkctrl/obj/libarsdkctrl/src/arsdk_ftp_itf.c.o
                0x000000000001b300                arsdk_ftp_req_get_get_buffer
 *fill*         0x000000000001b313        0xd 
 .text.arsdk_ftp_req_get_get_dev_type
                0x000000000001b320       0x1e /home/zxli/code/parrot-groundsdk/out/olympe-linux/build/libarsdkctrl/obj/libarsdkctrl/src/arsdk_ftp_itf.c.o
                0x000000000001b320                arsdk_ftp_req_get_get_dev_type
 *fill*         0x000000000001b33e        0x2 
 .text.arsdk_ftp_req_get_get_total_size
                0x000000000001b340        0xd /home/zxli/code/parrot-groundsdk/out/olympe-linux/build/libarsdkctrl/obj/libarsdkctrl/src/arsdk_ftp_itf.c.o
                0x000000000001b340                arsdk_ftp_req_get_get_total_size
 *fill*         0x000000000001b34d        0x3 
 .text.arsdk_ftp_req_get_get_dlsize
                0x000000000001b350        0xd /home/zxli/code/parrot-groundsdk/out/olympe-linux/build/libarsdkctrl/obj/libarsdkctrl/src/arsdk_ftp_itf.c.o
                0x000000000001b350                arsdk_ftp_req_get_get_dlsize
 *fill*         0x000000000001b35d        0x3 
 .text.arsdk_ftp_itf_create_req_put
                0x000000000001b360       0x1a /home/zxli/code/parrot-groundsdk/out/olympe-linux/build/libarsdkctrl/obj/libarsdkctrl/src/arsdk_ftp_itf.c.o
                0x000000000001b360                arsdk_ftp_itf_create_req_put
 *fill*         0x000000000001b37a        0x6 
 .text.arsdk_ftp_itf_create_req_put_buff
                0x000000000001b380       0x1d /home/zxli/code/parrot-groundsdk/out/olympe-linux/build/libarsdkctrl/obj/libarsdkctrl/src/arsdk_ftp_itf.c.o
                0x000000000001b380                arsdk_ftp_itf_create_req_put_buff
 *fill*         0x000000000001b39d        0x3 
 .text.arsdk_ftp_req_put_cancel
                0x000000000001b3a0      0x13d /home/zxli/code/parrot-groundsdk/out/olympe-linux/build/libarsdkctrl/obj/libarsdkctrl/src/arsdk_ftp_itf.c.o
                0x000000000001b3a0                arsdk_ftp_req_put_cancel
 *fill*         0x000000000001b4dd        0x3 
 .text.arsdk_ftp_req_put_get_remote_path
                0x000000000001b4e0       0x13 /home/zxli/code/parrot-groundsdk/out/olympe-linux/build/libarsdkctrl/obj/libarsdkctrl/src/arsdk_ftp_itf.c.o
                0x000000000001b4e0                arsdk_ftp_req_put_get_remote_path
 *fill*         0x000000000001b4f3        0xd 
 .text.arsdk_ftp_req_put_get_local_path
                0x000000000001b500       0x13 /home/zxli/code/parrot-groundsdk/out/olympe-linux/build/libarsdkctrl/obj/libarsdkctrl/src/arsdk_ftp_itf.c.o
                0x000000000001b500                arsdk_ftp_req_put_get_local_path
 *fill*         0x000000000001b513        0xd 
 .text.arsdk_ftp_req_put_get_dev_type
                0x000000000001b520       0x1e /home/zxli/code/parrot-groundsdk/out/olympe-linux/build/libarsdkctrl/obj/libarsdkctrl/src/arsdk_ftp_itf.c.o
                0x000000000001b520                arsdk_ftp_req_put_get_dev_type
 *fill*         0x000000000001b53e        0x2 
 .text.arsdk_ftp_req_put_get_total_size
                0x000000000001b540        0xd /home/zxli/code/parrot-groundsdk/out/olympe-linux/build/libarsdkctrl/obj/libarsdkctrl/src/arsdk_ftp_itf.c.o
                0x000000000001b540                arsdk_ftp_req_put_get_total_size
 *fill*         0x000000000001b54d        0x3 
 .text.arsdk_ftp_req_put_get_ulsize
                0x000000000001b550        0xd /home/zxli/code/parrot-groundsdk/out/olympe-linux/build/libarsdkctrl/obj/libarsdkctrl/src/arsdk_ftp_itf.c.o
                0x000000000001b550                arsdk_ftp_req_put_get_ulsize
 *fill*         0x000000000001b55d        0x3 
 .text.arsdk_ftp_itf_create_req_delete
                0x000000000001b560      0x2a7 /home/zxli/code/parrot-groundsdk/out/olympe-linux/build/libarsdkctrl/obj/libarsdkctrl/src/arsdk_ftp_itf.c.o
                0x000000000001b560                arsdk_ftp_itf_create_req_delete
 *fill*         0x000000000001b807        0x9 
 .text.arsdk_ftp_req_delete_cancel
                0x000000000001b810      0x13d /home/zxli/code/parrot-groundsdk/out/olympe-linux/build/libarsdkctrl/obj/libarsdkctrl/src/arsdk_ftp_itf.c.o
                0x000000000001b810                arsdk_ftp_req_delete_cancel
 *fill*         0x000000000001b94d        0x3 
 .text.arsdk_ftp_req_delete_get_path
                0x000000000001b950       0x13 /home/zxli/code/parrot-groundsdk/out/olympe-linux/build/libarsdkctrl/obj/libarsdkctrl/src/arsdk_ftp_itf.c.o
                0x000000000001b950                arsdk_ftp_req_delete_get_path
 *fill*         0x000000000001b963        0xd 
 .text.arsdk_ftp_req_delete_get_dev_type
                0x000000000001b970       0x1e /home/zxli/code/parrot-groundsdk/out/olympe-linux/build/libarsdkctrl/obj/libarsdkctrl/src/arsdk_ftp_itf.c.o
                0x000000000001b970                arsdk_ftp_req_delete_get_dev_type
 *fill*         0x000000000001b98e        0x2 
 .text.arsdk_ftp_itf_create_req_rename
                0x000000000001b990      0x314 /home/zxli/code/parrot-groundsdk/out/olympe-linux/build/libarsdkctrl/obj/libarsdkctrl/src/arsdk_ftp_itf.c.o
                0x000000000001b990                arsdk_ftp_itf_create_req_rename
 *fill*         0x000000000001bca4        0xc 
 .text.arsdk_ftp_req_rename_cancel
                0x000000000001bcb0      0x13d /home/zxli/code/parrot-groundsdk/out/olympe-linux/build/libarsdkctrl/obj/libarsdkctrl/src/arsdk_ftp_itf.c.o
                0x000000000001bcb0                arsdk_ftp_req_rename_cancel
 *fill*         0x000000000001bded        0x3 
 .text.arsdk_ftp_req_rename_get_src
                0x000000000001bdf0       0x13 /home/zxli/code/parrot-groundsdk/out/olympe-linux/build/libarsdkctrl/obj/libarsdkctrl/src/arsdk_ftp_itf.c.o
                0x000000000001bdf0                arsdk_ftp_req_rename_get_src
 *fill*         0x000000000001be03        0xd 
 .text.arsdk_ftp_req_rename_get_dst
                0x000000000001be10       0x13 /home/zxli/code/parrot-groundsdk/out/olympe-linux/build/libarsdkctrl/obj/libarsdkctrl/src/arsdk_ftp_itf.c.o
                0x000000000001be10                arsdk_ftp_req_rename_get_dst
 *fill*         0x000000000001be23        0xd 
 .text.arsdk_ftp_req_rename_get_dev_type
                0x000000000001be30       0x1e /home/zxli/code/parrot-groundsdk/out/olympe-linux/build/libarsdkctrl/obj/libarsdkctrl/src/arsdk_ftp_itf.c.o
                0x000000000001be30                arsdk_ftp_req_rename_get_dev_type
 *fill*         0x000000000001be4e        0x2 
 .text.arsdk_ftp_file_new
                0x000000000001be50       0xb7 /home/zxli/code/parrot-groundsdk/out/olympe-linux/build/libarsdkctrl/obj/libarsdkctrl/src/arsdk_ftp_itf.c.o
                0x000000000001be50                arsdk_ftp_file_new
 *fill*         0x000000000001bf07        0x9 
 .text.arsdk_ftp_file_destroy
                0x000000000001bf10       0x85 /home/zxli/code/parrot-groundsdk/out/olympe-linux/build/libarsdkctrl/obj/libarsdkctrl/src/arsdk_ftp_itf.c.o
                0x000000000001bf10                arsdk_ftp_file_destroy
 *fill*         0x000000000001bf95        0xb 
 .text.arsdk_ftp_file_set_name
                0x000000000001bfa0       0xda /home/zxli/code/parrot-groundsdk/out/olympe-linux/build/libarsdkctrl/obj/libarsdkctrl/src/arsdk_ftp_itf.c.o
                0x000000000001bfa0                arsdk_ftp_file_set_name
 *fill*         0x000000000001c07a        0x6 
 .text.arsdk_ftp_req_list_cancel
                0x000000000001c080      0x13d /home/zxli/code/parrot-groundsdk/out/olympe-linux/build/libarsdkctrl/obj/libarsdkctrl/src/arsdk_ftp_itf.c.o
                0x000000000001c080                arsdk_ftp_req_list_cancel
 *fill*         0x000000000001c1bd        0x3 
 .text.arsdk_ftp_req_list_get_path
                0x000000000001c1c0       0x13 /home/zxli/code/parrot-groundsdk/out/olympe-linux/build/libarsdkctrl/obj/libarsdkctrl/src/arsdk_ftp_itf.c.o
                0x000000000001c1c0                arsdk_ftp_req_list_get_path
 *fill*         0x000000000001c1d3        0xd 
 .text.arsdk_ftp_req_list_get_dev_type
                0x000000000001c1e0       0x1e /home/zxli/code/parrot-groundsdk/out/olympe-linux/build/libarsdkctrl/obj/libarsdkctrl/src/arsdk_ftp_itf.c.o
                0x000000000001c1e0                arsdk_ftp_req_list_get_dev_type
 *fill*         0x000000000001c1fe        0x2 
 .text.arsdk_ftp_req_list_get_result
                0x000000000001c200       0x13 /home/zxli/code/parrot-groundsdk/out/olympe-linux/build/libarsdkctrl/obj/libarsdkctrl/src/arsdk_ftp_itf.c.o
                0x000000000001c200                arsdk_ftp_req_list_get_result
 *fill*         0x000000000001c213        0xd 
 .text.arsdk_ftp_file_list_next_file
                0x000000000001c220       0x33 /home/zxli/code/parrot-groundsdk/out/olympe-linux/build/libarsdkctrl/obj/libarsdkctrl/src/arsdk_ftp_itf.c.o
                0x000000000001c220                arsdk_ftp_file_list_next_file
 *fill*         0x000000000001c253        0xd 
 .text.arsdk_ftp_file_list_get_count
                0x000000000001c260       0x3a /home/zxli/code/parrot-groundsdk/out/olympe-linux/build/libarsdkctrl/obj/libarsdkctrl/src/arsdk_ftp_itf.c.o
                0x000000000001c260                arsdk_ftp_file_list_get_count
 *fill*         0x000000000001c29a        0x6 
 .text.arsdk_ftp_file_list_ref
                0x000000000001c2a0       0x7d /home/zxli/code/parrot-groundsdk/out/olympe-linux/build/libarsdkctrl/obj/libarsdkctrl/src/arsdk_ftp_itf.c.o
                0x000000000001c2a0                arsdk_ftp_file_list_ref
 *fill*         0x000000000001c31d        0x3 
 .text.arsdk_ftp_file_get_name
                0x000000000001c320       0x13 /home/zxli/code/parrot-groundsdk/out/olympe-linux/build/libarsdkctrl/obj/libarsdkctrl/src/arsdk_ftp_itf.c.o
                0x000000000001c320                arsdk_ftp_file_get_name
 *fill*         0x000000000001c333        0xd 
 .text.arsdk_ftp_file_get_size
                0x000000000001c340        0xd /home/zxli/code/parrot-groundsdk/out/olympe-linux/build/libarsdkctrl/obj/libarsdkctrl/src/arsdk_ftp_itf.c.o
                0x000000000001c340                arsdk_ftp_file_get_size
 *fill*         0x000000000001c34d        0x3 
 .text.arsdk_ftp_file_get_type
                0x000000000001c350        0xf /home/zxli/code/parrot-groundsdk/out/olympe-linux/build/libarsdkctrl/obj/libarsdkctrl/src/arsdk_ftp_itf.c.o
                0x000000000001c350                arsdk_ftp_file_get_type
 *fill*         0x000000000001c35f        0x1 
 .text.arsdk_ftp_file_ref
                0x000000000001c360       0x7d /home/zxli/code/parrot-groundsdk/out/olympe-linux/build/libarsdkctrl/obj/libarsdkctrl/src/arsdk_ftp_itf.c.o
                0x000000000001c360                arsdk_ftp_file_ref
 *fill*         0x000000000001c3dd        0x3 
 .text.arsdk_ftp_file_unref
                0x000000000001c3e0       0x7d /home/zxli/code/parrot-groundsdk/out/olympe-linux/build/libarsdkctrl/obj/libarsdkctrl/src/arsdk_ftp_itf.c.o
                0x000000000001c3e0                arsdk_ftp_file_unref
 *fill*         0x000000000001c45d        0x3 
 .text.req_list_complete
                0x000000000001c460      0x48c /home/zxli/code/parrot-groundsdk/out/olympe-linux/build/libarsdkctrl/obj/libarsdkctrl/src/arsdk_ftp_itf.c.o
 *fill*         0x000000000001c8ec        0x4 
 .text.arsdk_ftp_file_list_unref
                0x000000000001c8f0       0xf0 /home/zxli/code/parrot-groundsdk/out/olympe-linux/build/libarsdkctrl/obj/libarsdkctrl/src/arsdk_ftp_itf.c.o
                0x000000000001c8f0                arsdk_ftp_file_list_unref
 .text.arsdk_ftp_req_list_destroy
                0x000000000001c9e0       0xa5 /home/zxli/code/parrot-groundsdk/out/olympe-linux/build/libarsdkctrl/obj/libarsdkctrl/src/arsdk_ftp_itf.c.o
 *fill*         0x000000000001ca85        0xb 
 .text.arsdk_ftp_itf_create_req_list
                0x000000000001ca90      0x2c7 /home/zxli/code/parrot-groundsdk/out/olympe-linux/build/libarsdkctrl/obj/libarsdkctrl/src/arsdk_ftp_itf.c.o
                0x000000000001ca90                arsdk_ftp_itf_create_req_list
 *fill*         0x000000000001cd57        0x9 
 .text.req_list_destroy
                0x000000000001cd60        0x9 /home/zxli/code/parrot-groundsdk/out/olympe-linux/build/libarsdkctrl/obj/libarsdkctrl/src/arsdk_ftp_itf.c.o
 *fill*         0x000000000001cd69        0x7 
 .text.link_status
                0x000000000001cd70       0x1d /home/zxli/code/parrot-groundsdk/out/olympe-linux/build/libarsdkctrl/obj/libarsdkctrl/src/arsdk_device.c.o
 *fill*         0x000000000001cd8d        0x3 
 .text.log_cb   0x000000000001cd90       0x2a /home/zxli/code/parrot-groundsdk/out/olympe-linux/build/libarsdkctrl/obj/libarsdkctrl/src/arsdk_device.c.o
 *fill*         0x000000000001cdba        0x6 
 .text.connecting
                0x000000000001cdc0       0x18 /home/zxli/code/parrot-groundsdk/out/olympe-linux/build/libarsdkctrl/obj/libarsdkctrl/src/arsdk_device.c.o
 *fill*         0x000000000001cdd8        0x8 
 .text.update_info
                0x000000000001cde0       0xea /home/zxli/code/parrot-groundsdk/out/olympe-linux/build/libarsdkctrl/obj/libarsdkctrl/src/arsdk_device.c.o
 *fill*         0x000000000001ceca        0x6 
 .text.stop_interfaces
                0x000000000001ced0       0xa2 /home/zxli/code/parrot-groundsdk/out/olympe-linux/build/libarsdkctrl/obj/libarsdkctrl/src/arsdk_device.c.o
 *fill*         0x000000000001cf72        0xe 
 .text.connected
                0x000000000001cf80      0x123 /home/zxli/code/parrot-groundsdk/out/olympe-linux/build/libarsdkctrl/obj/libarsdkctrl/src/arsdk_device.c.o
 *fill*         0x000000000001d0a3        0xd 
 .text.cleanup_connection
                0x000000000001d0b0      0x131 /home/zxli/code/parrot-groundsdk/out/olympe-linux/build/libarsdkctrl/obj/libarsdkctrl/src/arsdk_device.c.o
 *fill*         0x000000000001d1e1        0xf 
 .text.canceled
                0x000000000001d1f0       0x42 /home/zxli/code/parrot-groundsdk/out/olympe-linux/build/libarsdkctrl/obj/libarsdkctrl/src/arsdk_device.c.o
 *fill*         0x000000000001d232        0xe 
 .text.disconnected
                0x000000000001d240       0x34 /home/zxli/code/parrot-groundsdk/out/olympe-linux/build/libarsdkctrl/obj/libarsdkctrl/src/arsdk_device.c.o
 *fill*         0x000000000001d274        0xc 
 .text.cmd_itf_dispose
                0x000000000001d280       0xca /home/zxli/code/parrot-groundsdk/out/olympe-linux/build/libarsdkctrl/obj/libarsdkctrl/src/arsdk_device.c.o
 *fill*         0x000000000001d34a        0x6 
 .text.ftp_itf_dispose
                0x000000000001d350       0xca /home/zxli/code/parrot-groundsdk/out/olympe-linux/build/libarsdkctrl/obj/libarsdkctrl/src/arsdk_device.c.o
 *fill*         0x000000000001d41a        0x6 
 .text.tcp_proxy_open_idle_cb
                0x000000000001d420       0x79 /home/zxli/code/parrot-groundsdk/out/olympe-linux/build/libarsdkctrl/obj/libarsdkctrl/src/arsdk_device.c.o
 *fill*         0x000000000001d499        0x7 
 .text.mux_proxy_resolution_failed_cb
                0x000000000001d4a0       0xf0 /home/zxli/code/parrot-groundsdk/out/olympe-linux/build/libarsdkctrl/obj/libarsdkctrl/src/arsdk_device.c.o
 .text.mux_proxy_close_cb
                0x000000000001d590       0x95 /home/zxli/code/parrot-groundsdk/out/olympe-linux/build/libarsdkctrl/obj/libarsdkctrl/src/arsdk_device.c.o
 *fill*         0x000000000001d625        0xb 
 .text.mux_proxy_open_cb
                0x000000000001d630       0x89 /home/zxli/code/parrot-groundsdk/out/olympe-linux/build/libarsdkctrl/obj/libarsdkctrl/src/arsdk_device.c.o
 *fill*         0x000000000001d6b9        0x7 
 .text.recv_data
                0x000000000001d6c0       0xaa /home/zxli/code/parrot-groundsdk/out/olympe-linux/build/libarsdkctrl/obj/libarsdkctrl/src/arsdk_device.c.o
 *fill*         0x000000000001d76a        0x6 
 .text.ftp_itf_socket_cb
                0x000000000001d770       0xcd /home/zxli/code/parrot-groundsdk/out/olympe-linux/build/libarsdkctrl/obj/libarsdkctrl/src/arsdk_device.c.o
 *fill*         0x000000000001d83d        0x3 
 .text.arsdk_device_type_to_fld
                0x000000000001d840       0x3b /home/zxli/code/parrot-groundsdk/out/olympe-linux/build/libarsdkctrl/obj/libarsdkctrl/src/arsdk_device.c.o
                0x000000000001d840                arsdk_device_type_to_fld
 *fill*         0x000000000001d87b        0x5 
 .text.arsdk_device_destroy
                0x000000000001d880       0x97 /home/zxli/code/parrot-groundsdk/out/olympe-linux/build/libarsdkctrl/obj/libarsdkctrl/src/arsdk_device.c.o
                0x000000000001d880                arsdk_device_destroy
 *fill*         0x000000000001d917        0x9 
 .text.arsdk_device_state_str
                0x000000000001d920       0x38 /home/zxli/code/parrot-groundsdk/out/olympe-linux/build/libarsdkctrl/obj/libarsdkctrl/src/arsdk_device.c.o
                0x000000000001d920                arsdk_device_state_str
 *fill*         0x000000000001d958        0x8 
 .text.arsdk_device_new
                0x000000000001d960      0x1d7 /home/zxli/code/parrot-groundsdk/out/olympe-linux/build/libarsdkctrl/obj/libarsdkctrl/src/arsdk_device.c.o
                0x000000000001d960                arsdk_device_new
 *fill*         0x000000000001db37        0x9 
 .text.arsdk_device_clear_discovery
                0x000000000001db40       0x8d /home/zxli/code/parrot-groundsdk/out/olympe-linux/build/libarsdkctrl/obj/libarsdkctrl/src/arsdk_device.c.o
                0x000000000001db40                arsdk_device_clear_discovery
 *fill*         0x000000000001dbcd        0x3 
 .text.arsdk_device_set_osdata
                0x000000000001dbd0       0x85 /home/zxli/code/parrot-groundsdk/out/olympe-linux/build/libarsdkctrl/obj/libarsdkctrl/src/arsdk_device.c.o
                0x000000000001dbd0                arsdk_device_set_osdata
 *fill*         0x000000000001dc55        0xb 
 .text.arsdk_device_get_osdata
                0x000000000001dc60       0x13 /home/zxli/code/parrot-groundsdk/out/olympe-linux/build/libarsdkctrl/obj/libarsdkctrl/src/arsdk_device.c.o
                0x000000000001dc60                arsdk_device_get_osdata
 *fill*         0x000000000001dc73        0xd 
 .text.arsdk_device_get_handle
                0x000000000001dc80        0xd /home/zxli/code/parrot-groundsdk/out/olympe-linux/build/libarsdkctrl/obj/libarsdkctrl/src/arsdk_device.c.o
                0x000000000001dc80                arsdk_device_get_handle
 *fill*         0x000000000001dc8d        0x3 
 .text.arsdk_device_get_info
                0x000000000001dc90       0xdd /home/zxli/code/parrot-groundsdk/out/olympe-linux/build/libarsdkctrl/obj/libarsdkctrl/src/arsdk_device.c.o
                0x000000000001dc90                arsdk_device_get_info
 *fill*         0x000000000001dd6d        0x3 
 .text.arsdk_device_get_backend
                0x000000000001dd70       0x13 /home/zxli/code/parrot-groundsdk/out/olympe-linux/build/libarsdkctrl/obj/libarsdkctrl/src/arsdk_device.c.o
                0x000000000001dd70                arsdk_device_get_backend
 *fill*         0x000000000001dd83        0xd 
 .text.arsdk_device_get_discovery
                0x000000000001dd90       0x13 /home/zxli/code/parrot-groundsdk/out/olympe-linux/build/libarsdkctrl/obj/libarsdkctrl/src/arsdk_device.c.o
                0x000000000001dd90                arsdk_device_get_discovery
 *fill*         0x000000000001dda3        0xd 
 .text.arsdk_device_get_discovery_runid
                0x000000000001ddb0       0x10 /home/zxli/code/parrot-groundsdk/out/olympe-linux/build/libarsdkctrl/obj/libarsdkctrl/src/arsdk_device.c.o
                0x000000000001ddb0                arsdk_device_get_discovery_runid
 .text.arsdk_device_set_discovery_runid
                0x000000000001ddc0       0x85 /home/zxli/code/parrot-groundsdk/out/olympe-linux/build/libarsdkctrl/obj/libarsdkctrl/src/arsdk_device.c.o
                0x000000000001ddc0                arsdk_device_set_discovery_runid
 *fill*         0x000000000001de45        0xb 
 .text.arsdk_device_connect
                0x000000000001de50      0x3e3 /home/zxli/code/parrot-groundsdk/out/olympe-linux/build/libarsdkctrl/obj/libarsdkctrl/src/arsdk_device.c.o
                0x000000000001de50                arsdk_device_connect
 *fill*         0x000000000001e233        0xd 
 .text.arsdk_device_disconnect
                0x000000000001e240       0xb4 /home/zxli/code/parrot-groundsdk/out/olympe-linux/build/libarsdkctrl/obj/libarsdkctrl/src/arsdk_device.c.o
                0x000000000001e240                arsdk_device_disconnect
 *fill*         0x000000000001e2f4        0xc 
 .text.arsdk_device_create_cmd_itf
                0x000000000001e300      0x22c /home/zxli/code/parrot-groundsdk/out/olympe-linux/build/libarsdkctrl/obj/libarsdkctrl/src/arsdk_device.c.o
                0x000000000001e300                arsdk_device_create_cmd_itf
 *fill*         0x000000000001e52c        0x4 
 .text.arsdk_device_get_cmd_itf
                0x000000000001e530       0x13 /home/zxli/code/parrot-groundsdk/out/olympe-linux/build/libarsdkctrl/obj/libarsdkctrl/src/arsdk_device.c.o
                0x000000000001e530                arsdk_device_get_cmd_itf
 *fill*         0x000000000001e543        0xd 
 .text.arsdk_device_get_ftp_itf
                0x000000000001e550      0x1c8 /home/zxli/code/parrot-groundsdk/out/olympe-linux/build/libarsdkctrl/obj/libarsdkctrl/src/arsdk_device.c.o
                0x000000000001e550                arsdk_device_get_ftp_itf
 *fill*         0x000000000001e718        0x8 
 .text.arsdk_device_get_media_itf
                0x000000000001e720      0x197 /home/zxli/code/parrot-groundsdk/out/olympe-linux/build/libarsdkctrl/obj/libarsdkctrl/src/arsdk_device.c.o
                0x000000000001e720                arsdk_device_get_media_itf
 *fill*         0x000000000001e8b7        0x9 
 .text.arsdk_device_get_updater_itf
                0x000000000001e8c0      0x1b5 /home/zxli/code/parrot-groundsdk/out/olympe-linux/build/libarsdkctrl/obj/libarsdkctrl/src/arsdk_device.c.o
                0x000000000001e8c0                arsdk_device_get_updater_itf
 *fill*         0x000000000001ea75        0xb 
 .text.arsdk_device_get_blackbox_itf
                0x000000000001ea80      0x160 /home/zxli/code/parrot-groundsdk/out/olympe-linux/build/libarsdkctrl/obj/libarsdkctrl/src/arsdk_device.c.o
                0x000000000001ea80                arsdk_device_get_blackbox_itf
 .text.arsdk_device_get_crashml_itf
                0x000000000001ebe0      0x175 /home/zxli/code/parrot-groundsdk/out/olympe-linux/build/libarsdkctrl/obj/libarsdkctrl/src/arsdk_device.c.o
                0x000000000001ebe0                arsdk_device_get_crashml_itf
 *fill*         0x000000000001ed55        0xb 
 .text.arsdk_device_get_flight_log_itf
                0x000000000001ed60      0x175 /home/zxli/code/parrot-groundsdk/out/olympe-linux/build/libarsdkctrl/obj/libarsdkctrl/src/arsdk_device.c.o
                0x000000000001ed60                arsdk_device_get_flight_log_itf
 *fill*         0x000000000001eed5        0xb 
 .text.arsdk_device_get_pud_itf
                0x000000000001eee0      0x175 /home/zxli/code/parrot-groundsdk/out/olympe-linux/build/libarsdkctrl/obj/libarsdkctrl/src/arsdk_device.c.o
                0x000000000001eee0                arsdk_device_get_pud_itf
 *fill*         0x000000000001f055        0xb 
 .text.arsdk_device_get_ephemeris_itf
                0x000000000001f060      0x175 /home/zxli/code/parrot-groundsdk/out/olympe-linux/build/libarsdkctrl/obj/libarsdkctrl/src/arsdk_device.c.o
                0x000000000001f060                arsdk_device_get_ephemeris_itf
 *fill*         0x000000000001f1d5        0xb 
 .text.arsdk_device_destroy_tcp_proxy
                0x000000000001f1e0      0x12d /home/zxli/code/parrot-groundsdk/out/olympe-linux/build/libarsdkctrl/obj/libarsdkctrl/src/arsdk_device.c.o
                0x000000000001f1e0                arsdk_device_destroy_tcp_proxy
 *fill*         0x000000000001f30d        0x3 
 .text.arsdk_device_create_tcp_proxy
                0x000000000001f310      0x534 /home/zxli/code/parrot-groundsdk/out/olympe-linux/build/libarsdkctrl/obj/libarsdkctrl/src/arsdk_device.c.o
                0x000000000001f310                arsdk_device_create_tcp_proxy
 *fill*         0x000000000001f844        0xc 
 .text.arsdk_device_tcp_proxy_get_addr
                0x000000000001f850       0x13 /home/zxli/code/parrot-groundsdk/out/olympe-linux/build/libarsdkctrl/obj/libarsdkctrl/src/arsdk_device.c.o
                0x000000000001f850                arsdk_device_tcp_proxy_get_addr
 *fill*         0x000000000001f863        0xd 
 .text.arsdk_device_tcp_proxy_get_port
                0x000000000001f870       0x16 /home/zxli/code/parrot-groundsdk/out/olympe-linux/build/libarsdkctrl/obj/libarsdkctrl/src/arsdk_device.c.o
                0x000000000001f870                arsdk_device_tcp_proxy_get_port
 *fill*         0x000000000001f886        0xa 
 .text.device_conn_destroy
                0x000000000001f890      0x28f /home/zxli/code/parrot-groundsdk/out/olympe-linux/build/libarsdkctrl/obj/libarsdkctrl/src/net/arsdkctrl_backend_net.c.o
 *fill*         0x000000000001fb1f        0x1 
 .text.arsdkctrl_backend_net_stop_device_conn
                0x000000000001fb20      0x1e1 /home/zxli/code/parrot-groundsdk/out/olympe-linux/build/libarsdkctrl/obj/libarsdkctrl/src/net/arsdkctrl_backend_net.c.o
 *fill*         0x000000000001fd01        0xf 
 .text.device_conn_idle_destroy
                0x000000000001fd10        0x5 /home/zxli/code/parrot-groundsdk/out/olympe-linux/build/libarsdkctrl/obj/libarsdkctrl/src/net/arsdkctrl_backend_net.c.o
 *fill*         0x000000000001fd15        0xb 
 .text.arsdkctrl_backend_net_socket_cb
                0x000000000001fd20       0xa4 /home/zxli/code/parrot-groundsdk/out/olympe-linux/build/libarsdkctrl/obj/libarsdkctrl/src/net/arsdkctrl_backend_net.c.o
 *fill*         0x000000000001fdc4        0xc 
 .text.backend_ctrl_net_socket_cb
                0x000000000001fdd0       0x8c /home/zxli/code/parrot-groundsdk/out/olympe-linux/build/libarsdkctrl/obj/libarsdkctrl/src/net/arsdkctrl_backend_net.c.o
 *fill*         0x000000000001fe5c        0x4 
 .text.device_conn_pomp_socket_cb
                0x000000000001fe60       0xf1 /home/zxli/code/parrot-groundsdk/out/olympe-linux/build/libarsdkctrl/obj/libarsdkctrl/src/net/arsdkctrl_backend_net.c.o
 *fill*         0x000000000001ff51        0xf 
 .text.arsdkctrl_backend_net_start_device_conn
                0x000000000001ff60      0x8d6 /home/zxli/code/parrot-groundsdk/out/olympe-linux/build/libarsdkctrl/obj/libarsdkctrl/src/net/arsdkctrl_backend_net.c.o
 *fill*         0x0000000000020836        0xa 
 .text.device_conn_event_cb
                0x0000000000020840      0x227 /home/zxli/code/parrot-groundsdk/out/olympe-linux/build/libarsdkctrl/obj/libarsdkctrl/src/net/arsdkctrl_backend_net.c.o
 *fill*         0x0000000000020a67        0x9 
 .text.device_conn_raw_cb
                0x0000000000020a70      0x51c /home/zxli/code/parrot-groundsdk/out/olympe-linux/build/libarsdkctrl/obj/libarsdkctrl/src/net/arsdkctrl_backend_net.c.o
 *fill*         0x0000000000020f8c        0x4 
 .text.arsdkctrl_backend_net_new
                0x0000000000020f90      0x279 /home/zxli/code/parrot-groundsdk/out/olympe-linux/build/libarsdkctrl/obj/libarsdkctrl/src/net/arsdkctrl_backend_net.c.o
                0x0000000000020f90                arsdkctrl_backend_net_new
 *fill*         0x0000000000021209        0x7 
 .text.arsdkctrl_backend_net_destroy
                0x0000000000021210       0x9c /home/zxli/code/parrot-groundsdk/out/olympe-linux/build/libarsdkctrl/obj/libarsdkctrl/src/net/arsdkctrl_backend_net.c.o
                0x0000000000021210                arsdkctrl_backend_net_destroy
 *fill*         0x00000000000212ac        0x4 
 .text.arsdkctrl_backend_net_set_socket_cb
                0x00000000000212b0       0x84 /home/zxli/code/parrot-groundsdk/out/olympe-linux/build/libarsdkctrl/obj/libarsdkctrl/src/net/arsdkctrl_backend_net.c.o
                0x00000000000212b0                arsdkctrl_backend_net_set_socket_cb
 *fill*         0x0000000000021334        0xc 
 .text.arsdkctrl_backend_net_get_parent
                0x0000000000021340       0x13 /home/zxli/code/parrot-groundsdk/out/olympe-linux/build/libarsdkctrl/obj/libarsdkctrl/src/net/arsdkctrl_backend_net.c.o
                0x0000000000021340                arsdkctrl_backend_net_get_parent
 *fill*         0x0000000000021353        0xd 
 .text.timeval_diff
                0x0000000000021360       0x66 /home/zxli/code/parrot-groundsdk/out/olympe-linux/build/libarsdkctrl/obj/libarsdkctrl/src/net/arsdk_avahi_loop.c.o
 *fill*         0x00000000000213c6        0xa 
 .text.fd_event_cb
                0x00000000000213d0       0x22 /home/zxli/code/parrot-groundsdk/out/olympe-linux/build/libarsdkctrl/obj/libarsdkctrl/src/net/arsdk_avahi_loop.c.o
 *fill*         0x00000000000213f2        0xe 
 .text.timer_cb
                0x0000000000021400        0xa /home/zxli/code/parrot-groundsdk/out/olympe-linux/build/libarsdkctrl/obj/libarsdkctrl/src/net/arsdk_avahi_loop.c.o
 *fill*         0x000000000002140a        0x6 
 .text.watch_get_events
                0x0000000000021410        0x4 /home/zxli/code/parrot-groundsdk/out/olympe-linux/build/libarsdkctrl/obj/libarsdkctrl/src/net/arsdk_avahi_loop.c.o
 *fill*         0x0000000000021414        0xc 
 .text.timeout_free
                0x0000000000021420       0x16 /home/zxli/code/parrot-groundsdk/out/olympe-linux/build/libarsdkctrl/obj/libarsdkctrl/src/net/arsdk_avahi_loop.c.o
 *fill*         0x0000000000021436        0xa 
 .text.timeout_update
                0x0000000000021440      0x11a /home/zxli/code/parrot-groundsdk/out/olympe-linux/build/libarsdkctrl/obj/libarsdkctrl/src/net/arsdk_avahi_loop.c.o
 *fill*         0x000000000002155a        0x6 
 .text.timeout_new
                0x0000000000021560      0x184 /home/zxli/code/parrot-groundsdk/out/olympe-linux/build/libarsdkctrl/obj/libarsdkctrl/src/net/arsdk_avahi_loop.c.o
 *fill*         0x00000000000216e4        0xc 
 .text.watch_free
                0x00000000000216f0       0x1b /home/zxli/code/parrot-groundsdk/out/olympe-linux/build/libarsdkctrl/obj/libarsdkctrl/src/net/arsdk_avahi_loop.c.o
 *fill*         0x000000000002170b        0x5 
 .text.watch_update
                0x0000000000021710       0x95 /home/zxli/code/parrot-groundsdk/out/olympe-linux/build/libarsdkctrl/obj/libarsdkctrl/src/net/arsdk_avahi_loop.c.o
 *fill*         0x00000000000217a5        0xb 
 .text.watch_new
                0x00000000000217b0       0xf9 /home/zxli/code/parrot-groundsdk/out/olympe-linux/build/libarsdkctrl/obj/libarsdkctrl/src/net/arsdk_avahi_loop.c.o
 *fill*         0x00000000000218a9        0x7 
 .text.arsdk_avahi_loop_new
                0x00000000000218b0      0x234 /home/zxli/code/parrot-groundsdk/out/olympe-linux/build/libarsdkctrl/obj/libarsdkctrl/src/net/arsdk_avahi_loop.c.o
                0x00000000000218b0                arsdk_avahi_loop_new
 *fill*         0x0000000000021ae4        0xc 
 .text.arsdk_avahi_loop_destroy
                0x0000000000021af0       0x8d /home/zxli/code/parrot-groundsdk/out/olympe-linux/build/libarsdkctrl/obj/libarsdkctrl/src/net/arsdk_avahi_loop.c.o
                0x0000000000021af0                arsdk_avahi_loop_destroy
 *fill*         0x0000000000021b7d        0x3 
 .text.arsdk_avahi_loop_get_poll
                0x0000000000021b80       0x11 /home/zxli/code/parrot-groundsdk/out/olympe-linux/build/libarsdkctrl/obj/libarsdkctrl/src/net/arsdk_avahi_loop.c.o
                0x0000000000021b80                arsdk_avahi_loop_get_poll
 *fill*         0x0000000000021b91        0xf 
 .text.avahi_client_cb
                0x0000000000021ba0       0xaa /home/zxli/code/parrot-groundsdk/out/olympe-linux/build/libarsdkctrl/obj/libarsdkctrl/src/net/arsdk_discovery_avahi.c.o
 *fill*         0x0000000000021c4a        0x6 
 .text.socket_cb
                0x0000000000021c50       0xed /home/zxli/code/parrot-groundsdk/out/olympe-linux/build/libarsdkctrl/obj/libarsdkctrl/src/net/arsdk_discovery_avahi.c.o
 *fill*         0x0000000000021d3d        0x3 
 .text.avahi_browser_clean
                0x0000000000021d40       0xbd /home/zxli/code/parrot-groundsdk/out/olympe-linux/build/libarsdkctrl/obj/libarsdkctrl/src/net/arsdk_discovery_avahi.c.o
 *fill*         0x0000000000021dfd        0x3 
 .text.avahi_service_resolver_cb
                0x0000000000021e00      0x357 /home/zxli/code/parrot-groundsdk/out/olympe-linux/build/libarsdkctrl/obj/libarsdkctrl/src/net/arsdk_discovery_avahi.c.o
 *fill*         0x0000000000022157        0x9 
 .text.avahi_service_browser_cb
                0x0000000000022160      0x18f /home/zxli/code/parrot-groundsdk/out/olympe-linux/build/libarsdkctrl/obj/libarsdkctrl/src/net/arsdk_discovery_avahi.c.o
 *fill*         0x00000000000222ef        0x1 
 .text.arsdk_discovery_avahi_destroy
                0x00000000000222f0      0x159 /home/zxli/code/parrot-groundsdk/out/olympe-linux/build/libarsdkctrl/obj/libarsdkctrl/src/net/arsdk_discovery_avahi.c.o
                0x00000000000222f0                arsdk_discovery_avahi_destroy
 *fill*         0x0000000000022449        0x7 
 .text.arsdk_discovery_avahi_new
                0x0000000000022450      0x5da /home/zxli/code/parrot-groundsdk/out/olympe-linux/build/libarsdkctrl/obj/libarsdkctrl/src/net/arsdk_discovery_avahi.c.o
                0x0000000000022450                arsdk_discovery_avahi_new
 *fill*         0x0000000000022a2a        0x6 
 .text.arsdk_discovery_avahi_start
                0x0000000000022a30      0x431 /home/zxli/code/parrot-groundsdk/out/olympe-linux/build/libarsdkctrl/obj/libarsdkctrl/src/net/arsdk_discovery_avahi.c.o
                0x0000000000022a30                arsdk_discovery_avahi_start
 *fill*         0x0000000000022e61        0xf 
 .text.arsdk_discovery_avahi_stop
                0x0000000000022e70       0xdd /home/zxli/code/parrot-groundsdk/out/olympe-linux/build/libarsdkctrl/obj/libarsdkctrl/src/net/arsdk_discovery_avahi.c.o
                0x0000000000022e70                arsdk_discovery_avahi_stop
 *fill*         0x0000000000022f4d        0x3 
 .text.socket_cb
                0x0000000000022f50       0xed /home/zxli/code/parrot-groundsdk/out/olympe-linux/build/libarsdkctrl/obj/libarsdkctrl/src/net/arsdk_discovery_net.c.o
 *fill*         0x000000000002303d        0x3 
 .text.event_cb
                0x0000000000023040       0x44 /home/zxli/code/parrot-groundsdk/out/olympe-linux/build/libarsdkctrl/obj/libarsdkctrl/src/net/arsdk_discovery_net.c.o
 *fill*         0x0000000000023084        0xc 
 .text.raw_cb   0x0000000000023090      0x2e5 /home/zxli/code/parrot-groundsdk/out/olympe-linux/build/libarsdkctrl/obj/libarsdkctrl/src/net/arsdk_discovery_net.c.o
 *fill*         0x0000000000023375        0xb 
 .text.arsdk_discovery_net_destroy
                0x0000000000023380       0xad /home/zxli/code/parrot-groundsdk/out/olympe-linux/build/libarsdkctrl/obj/libarsdkctrl/src/net/arsdk_discovery_net.c.o
                0x0000000000023380                arsdk_discovery_net_destroy
 *fill*         0x000000000002342d        0x3 
 .text.arsdk_discovery_net_new_with_port
                0x0000000000023430      0x55a /home/zxli/code/parrot-groundsdk/out/olympe-linux/build/libarsdkctrl/obj/libarsdkctrl/src/net/arsdk_discovery_net.c.o
                0x0000000000023430                arsdk_discovery_net_new_with_port
 *fill*         0x000000000002398a        0x6 
 .text.arsdk_discovery_net_new
                0x0000000000023990        0xe /home/zxli/code/parrot-groundsdk/out/olympe-linux/build/libarsdkctrl/obj/libarsdkctrl/src/net/arsdk_discovery_net.c.o
                0x0000000000023990                arsdk_discovery_net_new
 *fill*         0x000000000002399e        0x2 
 .text.arsdk_discovery_net_stop
                0x00000000000239a0      0x110 /home/zxli/code/parrot-groundsdk/out/olympe-linux/build/libarsdkctrl/obj/libarsdkctrl/src/net/arsdk_discovery_net.c.o
                0x00000000000239a0                arsdk_discovery_net_stop
 .text.arsdk_discovery_net_start
                0x0000000000023ab0      0x20f /home/zxli/code/parrot-groundsdk/out/olympe-linux/build/libarsdkctrl/obj/libarsdkctrl/src/net/arsdk_discovery_net.c.o
                0x0000000000023ab0                arsdk_discovery_net_start
 *fill*         0x0000000000023cbf        0x1 
 .text.device_conn_destroy
                0x0000000000023cc0      0x15f /home/zxli/code/parrot-groundsdk/out/olympe-linux/build/libarsdkctrl/obj/libarsdkctrl/src/mux/arsdkctrl_backend_mux.c.o
 *fill*         0x0000000000023e1f        0x1 
 .text.arsdkctrl_backend_mux_stop_device_conn
                0x0000000000023e20      0x201 /home/zxli/code/parrot-groundsdk/out/olympe-linux/build/libarsdkctrl/obj/libarsdkctrl/src/mux/arsdkctrl_backend_mux.c.o
 *fill*         0x0000000000024021        0xf 
 .text.backend_mux_channel_cb
                0x0000000000024030      0x7ac /home/zxli/code/parrot-groundsdk/out/olympe-linux/build/libarsdkctrl/obj/libarsdkctrl/src/mux/arsdkctrl_backend_mux.c.o
 *fill*         0x00000000000247dc        0x4 
 .text.backend_mux_write_msg.constprop.4
                0x00000000000247e0      0x1ff /home/zxli/code/parrot-groundsdk/out/olympe-linux/build/libarsdkctrl/obj/libarsdkctrl/src/mux/arsdkctrl_backend_mux.c.o
 *fill*         0x00000000000249df        0x1 
 .text.arsdkctrl_backend_mux_start_device_conn
                0x00000000000249e0      0x748 /home/zxli/code/parrot-groundsdk/out/olympe-linux/build/libarsdkctrl/obj/libarsdkctrl/src/mux/arsdkctrl_backend_mux.c.o
 *fill*         0x0000000000025128        0x8 
 .text.arsdkctrl_backend_mux_new
                0x0000000000025130      0x311 /home/zxli/code/parrot-groundsdk/out/olympe-linux/build/libarsdkctrl/obj/libarsdkctrl/src/mux/arsdkctrl_backend_mux.c.o
                0x0000000000025130                arsdkctrl_backend_mux_new
 *fill*         0x0000000000025441        0xf 
 .text.arsdkctrl_backend_mux_destroy
                0x0000000000025450      0x13f /home/zxli/code/parrot-groundsdk/out/olympe-linux/build/libarsdkctrl/obj/libarsdkctrl/src/mux/arsdkctrl_backend_mux.c.o
                0x0000000000025450                arsdkctrl_backend_mux_destroy
 *fill*         0x000000000002558f        0x1 
 .text.arsdkctrl_backend_mux_get_parent
                0x0000000000025590       0x13 /home/zxli/code/parrot-groundsdk/out/olympe-linux/build/libarsdkctrl/obj/libarsdkctrl/src/mux/arsdkctrl_backend_mux.c.o
                0x0000000000025590                arsdkctrl_backend_mux_get_parent
 *fill*         0x00000000000255a3        0xd 
 .text.arsdkctrl_backend_mux_get_mux_ctx
                0x00000000000255b0       0x13 /home/zxli/code/parrot-groundsdk/out/olympe-linux/build/libarsdkctrl/obj/libarsdkctrl/src/mux/arsdkctrl_backend_mux.c.o
                0x00000000000255b0                arsdkctrl_backend_mux_get_mux_ctx
 *fill*         0x00000000000255c3        0xd 
 .text.discovery_mux_open_discovery_channel
                0x00000000000255d0       0x9d /home/zxli/code/parrot-groundsdk/out/olympe-linux/build/libarsdkctrl/obj/libarsdkctrl/src/mux/arsdk_discovery_mux.c.o
 *fill*         0x000000000002566d        0x3 
 .text.discovery_mux_channel_cb
                0x0000000000025670      0x43a /home/zxli/code/parrot-groundsdk/out/olympe-linux/build/libarsdkctrl/obj/libarsdkctrl/src/mux/arsdk_discovery_mux.c.o
 *fill*         0x0000000000025aaa        0x6 
 .text.discovery_mux_write_msg.constprop.4
                0x0000000000025ab0      0x1f7 /home/zxli/code/parrot-groundsdk/out/olympe-linux/build/libarsdkctrl/obj/libarsdkctrl/src/mux/arsdk_discovery_mux.c.o
 *fill*         0x0000000000025ca7        0x9 
 .text.arsdk_discovery_mux_destroy
                0x0000000000025cb0       0xbd /home/zxli/code/parrot-groundsdk/out/olympe-linux/build/libarsdkctrl/obj/libarsdkctrl/src/mux/arsdk_discovery_mux.c.o
                0x0000000000025cb0                arsdk_discovery_mux_destroy
 *fill*         0x0000000000025d6d        0x3 
 .text.arsdk_discovery_mux_new
                0x0000000000025d70      0x406 /home/zxli/code/parrot-groundsdk/out/olympe-linux/build/libarsdkctrl/obj/libarsdkctrl/src/mux/arsdk_discovery_mux.c.o
                0x0000000000025d70                arsdk_discovery_mux_new
 *fill*         0x0000000000026176        0xa 
 .text.arsdk_discovery_mux_start
                0x0000000000026180      0x1c4 /home/zxli/code/parrot-groundsdk/out/olympe-linux/build/libarsdkctrl/obj/libarsdkctrl/src/mux/arsdk_discovery_mux.c.o
                0x0000000000026180                arsdk_discovery_mux_start
 *fill*         0x0000000000026344        0xc 
 .text.arsdk_discovery_mux_stop
                0x0000000000026350       0x8d /home/zxli/code/parrot-groundsdk/out/olympe-linux/build/libarsdkctrl/obj/libarsdkctrl/src/mux/arsdk_discovery_mux.c.o
                0x0000000000026350                arsdk_discovery_mux_stop
 *fill*         0x00000000000263dd        0x3 
 .text.connected_cb
                0x00000000000263e0        0x2 /home/zxli/code/parrot-groundsdk/out/olympe-linux/build/libarsdkctrl/obj/libarsdkctrl/src/ftp/arsdk_ftp.c.o
 *fill*         0x00000000000263e2        0xe 
 .text.recv_response_cb
                0x00000000000263f0        0x2 /home/zxli/code/parrot-groundsdk/out/olympe-linux/build/libarsdkctrl/obj/libarsdkctrl/src/ftp/arsdk_ftp.c.o
 *fill*         0x00000000000263f2        0xe 
 .text.conn_socket_cb
                0x0000000000026400       0x13 /home/zxli/code/parrot-groundsdk/out/olympe-linux/build/libarsdkctrl/obj/libarsdkctrl/src/ftp/arsdk_ftp.c.o
 *fill*         0x0000000000026413        0xd 
 .text.seq_data_send_cb
                0x0000000000026420       0xdc /home/zxli/code/parrot-groundsdk/out/olympe-linux/build/libarsdkctrl/obj/libarsdkctrl/src/ftp/arsdk_ftp.c.o
 *fill*         0x00000000000264fc        0x4 
 .text.req_destroy
                0x0000000000026500      0x169 /home/zxli/code/parrot-groundsdk/out/olympe-linux/build/libarsdkctrl/obj/libarsdkctrl/src/ftp/arsdk_ftp.c.o
 *fill*         0x0000000000026669        0x7 
 .text.seq_complete_cb
                0x0000000000026670      0x151 /home/zxli/code/parrot-groundsdk/out/olympe-linux/build/libarsdkctrl/obj/libarsdkctrl/src/ftp/arsdk_ftp.c.o
 *fill*         0x00000000000267c1        0xf 
 .text.seq_data_recv_cb
                0x00000000000267d0      0x1cc /home/zxli/code/parrot-groundsdk/out/olympe-linux/build/libarsdkctrl/obj/libarsdkctrl/src/ftp/arsdk_ftp.c.o
 *fill*         0x000000000002699c        0x4 
 .text.seq_socket_cb
                0x00000000000269a0       0x94 /home/zxli/code/parrot-groundsdk/out/olympe-linux/build/libarsdkctrl/obj/libarsdkctrl/src/ftp/arsdk_ftp.c.o
 *fill*         0x0000000000026a34        0xc 
 .text.seq_get_file_size_cb
                0x0000000000026a40       0x84 /home/zxli/code/parrot-groundsdk/out/olympe-linux/build/libarsdkctrl/obj/libarsdkctrl/src/ftp/arsdk_ftp.c.o
 *fill*         0x0000000000026ac4        0xc 
 .text.disconnected_cb
                0x0000000000026ad0       0xbc /home/zxli/code/parrot-groundsdk/out/olympe-linux/build/libarsdkctrl/obj/libarsdkctrl/src/ftp/arsdk_ftp.c.o
 *fill*         0x0000000000026b8c        0x4 
 .text.conn_elem_destroy
                0x0000000000026b90       0x94 /home/zxli/code/parrot-groundsdk/out/olympe-linux/build/libarsdkctrl/obj/libarsdkctrl/src/ftp/arsdk_ftp.c.o
 *fill*         0x0000000000026c24        0xc 
 .text.conn_elem_destroy_cb
                0x0000000000026c30        0x5 /home/zxli/code/parrot-groundsdk/out/olympe-linux/build/libarsdkctrl/obj/libarsdkctrl/src/ftp/arsdk_ftp.c.o
 *fill*         0x0000000000026c35        0xb 
 .text.req_new  0x0000000000026c40      0x4e0 /home/zxli/code/parrot-groundsdk/out/olympe-linux/build/libarsdkctrl/obj/libarsdkctrl/src/ftp/arsdk_ftp.c.o
 .text.arsdk_ftp_new
                0x0000000000027120      0x27b /home/zxli/code/parrot-groundsdk/out/olympe-linux/build/libarsdkctrl/obj/libarsdkctrl/src/ftp/arsdk_ftp.c.o
                0x0000000000027120                arsdk_ftp_new
 *fill*         0x000000000002739b        0x5 
 .text.arsdk_ftp_get
                0x00000000000273a0      0x38a /home/zxli/code/parrot-groundsdk/out/olympe-linux/build/libarsdkctrl/obj/libarsdkctrl/src/ftp/arsdk_ftp.c.o
                0x00000000000273a0                arsdk_ftp_get
 *fill*         0x000000000002772a        0x6 
 .text.arsdk_ftp_put
                0x0000000000027730      0x3e0 /home/zxli/code/parrot-groundsdk/out/olympe-linux/build/libarsdkctrl/obj/libarsdkctrl/src/ftp/arsdk_ftp.c.o
                0x0000000000027730                arsdk_ftp_put
 .text.arsdk_ftp_size
                0x0000000000027b10      0x2b3 /home/zxli/code/parrot-groundsdk/out/olympe-linux/build/libarsdkctrl/obj/libarsdkctrl/src/ftp/arsdk_ftp.c.o
                0x0000000000027b10                arsdk_ftp_size
 *fill*         0x0000000000027dc3        0xd 
 .text.arsdk_ftp_rename
                0x0000000000027dd0      0x3f6 /home/zxli/code/parrot-groundsdk/out/olympe-linux/build/libarsdkctrl/obj/libarsdkctrl/src/ftp/arsdk_ftp.c.o
                0x0000000000027dd0                arsdk_ftp_rename
 *fill*         0x00000000000281c6        0xa 
 .text.arsdk_ftp_delete
                0x00000000000281d0      0x354 /home/zxli/code/parrot-groundsdk/out/olympe-linux/build/libarsdkctrl/obj/libarsdkctrl/src/ftp/arsdk_ftp.c.o
                0x00000000000281d0                arsdk_ftp_delete
 *fill*         0x0000000000028524        0xc 
 .text.arsdk_ftp_list
                0x0000000000028530      0x361 /home/zxli/code/parrot-groundsdk/out/olympe-linux/build/libarsdkctrl/obj/libarsdkctrl/src/ftp/arsdk_ftp.c.o
                0x0000000000028530                arsdk_ftp_list
 *fill*         0x0000000000028891        0xf 
 .text.arsdk_ftp_req_get_size
                0x00000000000288a0        0xd /home/zxli/code/parrot-groundsdk/out/olympe-linux/build/libarsdkctrl/obj/libarsdkctrl/src/ftp/arsdk_ftp.c.o
                0x00000000000288a0                arsdk_ftp_req_get_size
 *fill*         0x00000000000288ad        0x3 
 .text.arsdk_ftp_req_get_url
                0x00000000000288b0       0x13 /home/zxli/code/parrot-groundsdk/out/olympe-linux/build/libarsdkctrl/obj/libarsdkctrl/src/ftp/arsdk_ftp.c.o
                0x00000000000288b0                arsdk_ftp_req_get_url
 *fill*         0x00000000000288c3        0xd 
 .text.arsdk_ftp_cancel_req
                0x00000000000288d0       0x84 /home/zxli/code/parrot-groundsdk/out/olympe-linux/build/libarsdkctrl/obj/libarsdkctrl/src/ftp/arsdk_ftp.c.o
                0x00000000000288d0                arsdk_ftp_cancel_req
 *fill*         0x0000000000028954        0xc 
 .text.arsdk_ftp_cancel_all
                0x0000000000028960       0xb5 /home/zxli/code/parrot-groundsdk/out/olympe-linux/build/libarsdkctrl/obj/libarsdkctrl/src/ftp/arsdk_ftp.c.o
                0x0000000000028960                arsdk_ftp_cancel_all
 *fill*         0x0000000000028a15        0xb 
 .text.arsdk_ftp_stop
                0x0000000000028a20      0x174 /home/zxli/code/parrot-groundsdk/out/olympe-linux/build/libarsdkctrl/obj/libarsdkctrl/src/ftp/arsdk_ftp.c.o
                0x0000000000028a20                arsdk_ftp_stop
 *fill*         0x0000000000028b94        0xc 
 .text.arsdk_ftp_destroy
                0x0000000000028ba0       0x36 /home/zxli/code/parrot-groundsdk/out/olympe-linux/build/libarsdkctrl/obj/libarsdkctrl/src/ftp/arsdk_ftp.c.o
                0x0000000000028ba0                arsdk_ftp_destroy
 *fill*         0x0000000000028bd6        0xa 
 .text.ftp_disconnected
                0x0000000000028be0       0xb4 /home/zxli/code/parrot-groundsdk/out/olympe-linux/build/libarsdkctrl/obj/libarsdkctrl/src/ftp/arsdk_ftp_conn.c.o
 *fill*         0x0000000000028c94        0xc 
 .text.socket_cb
                0x0000000000028ca0       0xb4 /home/zxli/code/parrot-groundsdk/out/olympe-linux/build/libarsdkctrl/obj/libarsdkctrl/src/ftp/arsdk_ftp_conn.c.o
 *fill*         0x0000000000028d54        0xc 
 .text.arsdk_ftp_conn_send
                0x0000000000028d60      0x195 /home/zxli/code/parrot-groundsdk/out/olympe-linux/build/libarsdkctrl/obj/libarsdkctrl/src/ftp/arsdk_ftp_conn.c.o
                0x0000000000028d60                arsdk_ftp_conn_send
 *fill*         0x0000000000028ef5        0xb 
 .text.process_event
                0x0000000000028f00      0x380 /home/zxli/code/parrot-groundsdk/out/olympe-linux/build/libarsdkctrl/obj/libarsdkctrl/src/ftp/arsdk_ftp_conn.c.o
 .text.arsdk_ftp_conn_recv_cb
                0x0000000000029280      0x132 /home/zxli/code/parrot-groundsdk/out/olympe-linux/build/libarsdkctrl/obj/libarsdkctrl/src/ftp/arsdk_ftp_conn.c.o
 *fill*         0x00000000000293b2        0xe 
 .text.arsdk_ftp_conn_event_cb
                0x00000000000293c0       0x9d /home/zxli/code/parrot-groundsdk/out/olympe-linux/build/libarsdkctrl/obj/libarsdkctrl/src/ftp/arsdk_ftp_conn.c.o
 *fill*         0x000000000002945d        0x3 
 .text.arsdk_ftp_conn_destroy
                0x0000000000029460       0xed /home/zxli/code/parrot-groundsdk/out/olympe-linux/build/libarsdkctrl/obj/libarsdkctrl/src/ftp/arsdk_ftp_conn.c.o
                0x0000000000029460                arsdk_ftp_conn_destroy
 *fill*         0x000000000002954d        0x3 
 .text.arsdk_ftp_conn_new
                0x0000000000029550      0x2a2 /home/zxli/code/parrot-groundsdk/out/olympe-linux/build/libarsdkctrl/obj/libarsdkctrl/src/ftp/arsdk_ftp_conn.c.o
                0x0000000000029550                arsdk_ftp_conn_new
 *fill*         0x00000000000297f2        0xe 
 .text.arsdk_ftp_conn_is_connected
                0x0000000000029800       0x12 /home/zxli/code/parrot-groundsdk/out/olympe-linux/build/libarsdkctrl/obj/libarsdkctrl/src/ftp/arsdk_ftp_conn.c.o
                0x0000000000029800                arsdk_ftp_conn_is_connected
 *fill*         0x0000000000029812        0xe 
 .text.arsdk_ftp_conn_get_addr
                0x0000000000029820       0x33 /home/zxli/code/parrot-groundsdk/out/olympe-linux/build/libarsdkctrl/obj/libarsdkctrl/src/ftp/arsdk_ftp_conn.c.o
                0x0000000000029820                arsdk_ftp_conn_get_addr
 *fill*         0x0000000000029853        0xd 
 .text.arsdk_ftp_conn_add_listener
                0x0000000000029860      0x364 /home/zxli/code/parrot-groundsdk/out/olympe-linux/build/libarsdkctrl/obj/libarsdkctrl/src/ftp/arsdk_ftp_conn.c.o
                0x0000000000029860                arsdk_ftp_conn_add_listener
 *fill*         0x0000000000029bc4        0xc 
 .text.arsdk_ftp_conn_remove_listener
                0x0000000000029bd0      0x135 /home/zxli/code/parrot-groundsdk/out/olympe-linux/build/libarsdkctrl/obj/libarsdkctrl/src/ftp/arsdk_ftp_conn.c.o
                0x0000000000029bd0                arsdk_ftp_conn_remove_listener
 *fill*         0x0000000000029d05        0xb 
 .text.conn_socket_cb
                0x0000000000029d10        0x2 /home/zxli/code/parrot-groundsdk/out/olympe-linux/build/libarsdkctrl/obj/libarsdkctrl/src/ftp/arsdk_ftp_seq.c.o
 *fill*         0x0000000000029d12        0xe 
 .text.dispatch_data_stream_ctx_destroy_cb
                0x0000000000029d20        0x5 /home/zxli/code/parrot-groundsdk/out/olympe-linux/build/libarsdkctrl/obj/libarsdkctrl/src/ftp/arsdk_ftp_seq.c.o
 *fill*         0x0000000000029d25        0xb 
 .text.socket_cb
                0x0000000000029d30       0x79 /home/zxli/code/parrot-groundsdk/out/olympe-linux/build/libarsdkctrl/obj/libarsdkctrl/src/ftp/arsdk_ftp_seq.c.o
 *fill*         0x0000000000029da9        0x7 
 .text.stop_send_data
                0x0000000000029db0       0x95 /home/zxli/code/parrot-groundsdk/out/olympe-linux/build/libarsdkctrl/obj/libarsdkctrl/src/ftp/arsdk_ftp_seq.c.o
 *fill*         0x0000000000029e45        0xb 
 .text.close_data_stream
                0x0000000000029e50       0xad /home/zxli/code/parrot-groundsdk/out/olympe-linux/build/libarsdkctrl/obj/libarsdkctrl/src/ftp/arsdk_ftp_seq.c.o
 *fill*         0x0000000000029efd        0x3 
 .text.stop     0x0000000000029f00       0xa5 /home/zxli/code/parrot-groundsdk/out/olympe-linux/build/libarsdkctrl/obj/libarsdkctrl/src/ftp/arsdk_ftp_seq.c.o
 *fill*         0x0000000000029fa5        0xb 
 .text.process_event
                0x0000000000029fb0      0x6b0 /home/zxli/code/parrot-groundsdk/out/olympe-linux/build/libarsdkctrl/obj/libarsdkctrl/src/ftp/arsdk_ftp_seq.c.o
 .text.recv_response_cb
                0x000000000002a660       0xd5 /home/zxli/code/parrot-groundsdk/out/olympe-linux/build/libarsdkctrl/obj/libarsdkctrl/src/ftp/arsdk_ftp_seq.c.o
 *fill*         0x000000000002a735        0xb 
 .text.send_next_step
                0x000000000002a740      0x182 /home/zxli/code/parrot-groundsdk/out/olympe-linux/build/libarsdkctrl/obj/libarsdkctrl/src/ftp/arsdk_ftp_seq.c.o
 *fill*         0x000000000002a8c2        0xe 
 .text.data_read
                0x000000000002a8d0      0x291 /home/zxli/code/parrot-groundsdk/out/olympe-linux/build/libarsdkctrl/obj/libarsdkctrl/src/ftp/arsdk_ftp_seq.c.o
 *fill*         0x000000000002ab61        0xf 
 .text.pomp_send_cb
                0x000000000002ab70        0x8 /home/zxli/code/parrot-groundsdk/out/olympe-linux/build/libarsdkctrl/obj/libarsdkctrl/src/ftp/arsdk_ftp_seq.c.o
 *fill*         0x000000000002ab78        0x8 
 .text.data_recv_cb
                0x000000000002ab80       0xc2 /home/zxli/code/parrot-groundsdk/out/olympe-linux/build/libarsdkctrl/obj/libarsdkctrl/src/ftp/arsdk_ftp_seq.c.o
 *fill*         0x000000000002ac42        0xe 
 .text.data_event_cb
                0x000000000002ac50       0xd2 /home/zxli/code/parrot-groundsdk/out/olympe-linux/build/libarsdkctrl/obj/libarsdkctrl/src/ftp/arsdk_ftp_seq.c.o
 *fill*         0x000000000002ad22        0xe 
 .text.disconnected_cb
                0x000000000002ad30       0xd5 /home/zxli/code/parrot-groundsdk/out/olympe-linux/build/libarsdkctrl/obj/libarsdkctrl/src/ftp/arsdk_ftp_seq.c.o
 *fill*         0x000000000002ae05        0xb 
 .text.connected_cb
                0x000000000002ae10       0xd5 /home/zxli/code/parrot-groundsdk/out/olympe-linux/build/libarsdkctrl/obj/libarsdkctrl/src/ftp/arsdk_ftp_seq.c.o
 *fill*         0x000000000002aee5        0xb 
 .text.arsdk_ftp_seq_destroy
                0x000000000002aef0       0x95 /home/zxli/code/parrot-groundsdk/out/olympe-linux/build/libarsdkctrl/obj/libarsdkctrl/src/ftp/arsdk_ftp_seq.c.o
                0x000000000002aef0                arsdk_ftp_seq_destroy
 *fill*         0x000000000002af85        0xb 
 .text.arsdk_ftp_seq_new
                0x000000000002af90      0x450 /home/zxli/code/parrot-groundsdk/out/olympe-linux/build/libarsdkctrl/obj/libarsdkctrl/src/ftp/arsdk_ftp_seq.c.o
                0x000000000002af90                arsdk_ftp_seq_new
 .text.arsdk_ftp_seq_append
                0x000000000002b3e0       0xba /home/zxli/code/parrot-groundsdk/out/olympe-linux/build/libarsdkctrl/obj/libarsdkctrl/src/ftp/arsdk_ftp_seq.c.o
                0x000000000002b3e0                arsdk_ftp_seq_append
 *fill*         0x000000000002b49a        0x6 
 .text.arsdk_ftp_seq_start
                0x000000000002b4a0       0xca /home/zxli/code/parrot-groundsdk/out/olympe-linux/build/libarsdkctrl/obj/libarsdkctrl/src/ftp/arsdk_ftp_seq.c.o
                0x000000000002b4a0                arsdk_ftp_seq_start
 *fill*         0x000000000002b56a        0x6 
 .text.arsdk_ftp_seq_stop
                0x000000000002b570       0xca /home/zxli/code/parrot-groundsdk/out/olympe-linux/build/libarsdkctrl/obj/libarsdkctrl/src/ftp/arsdk_ftp_seq.c.o
                0x000000000002b570                arsdk_ftp_seq_stop
 *fill*         0x000000000002b63a        0x6 
 .text.arsdk_ftp_cmd_enc
                0x000000000002b640      0x204 /home/zxli/code/parrot-groundsdk/out/olympe-linux/build/libarsdkctrl/obj/libarsdkctrl/src/ftp/arsdk_ftp_cmd.c.o
                0x000000000002b640                arsdk_ftp_cmd_enc
 *fill*         0x000000000002b844        0xc 
 .text.arsdk_ftp_cmd_dec
                0x000000000002b850      0x2cd /home/zxli/code/parrot-groundsdk/out/olympe-linux/build/libarsdkctrl/obj/libarsdkctrl/src/ftp/arsdk_ftp_cmd.c.o
                0x000000000002b850                arsdk_ftp_cmd_dec
 *(.gnu.warning)

.fini           0x000000000002bb20        0x9
 *(SORT_NONE(.fini))
 .fini          0x000000000002bb20        0x4 /usr/lib/gcc/x86_64-linux-gnu/7/../../../x86_64-linux-gnu/crti.o
                0x000000000002bb20                _fini
 .fini          0x000000000002bb24        0x5 /usr/lib/gcc/x86_64-linux-gnu/7/../../../x86_64-linux-gnu/crtn.o
                [!provide]                        PROVIDE (__etext = .)
                [!provide]                        PROVIDE (_etext = .)
                [!provide]                        PROVIDE (etext = .)

.rodata         0x000000000002bb40     0x3f82
 *(.rodata .rodata.* .gnu.linkonce.r.*)
 .rodata.str1.1
                0x000000000002bb40        0xa /home/zxli/code/parrot-groundsdk/out/olympe-linux/build/libarsdkctrl/obj/libarsdkctrl/src/arsdkctrl_log.c.o
 .rodata.str1.1
                0x000000000002bb4a       0xba /home/zxli/code/parrot-groundsdk/out/olympe-linux/build/libarsdkctrl/obj/libarsdkctrl/src/arsdk_discovery.c.o
 *fill*         0x000000000002bc04        0x4 
 .rodata.str1.8
                0x000000000002bc08      0x120 /home/zxli/code/parrot-groundsdk/out/olympe-linux/build/libarsdkctrl/obj/libarsdkctrl/src/arsdk_discovery.c.o
 *fill*         0x000000000002bd28        0x8 
 .rodata        0x000000000002bd30       0xb6 /home/zxli/code/parrot-groundsdk/out/olympe-linux/build/libarsdkctrl/obj/libarsdkctrl/src/arsdk_discovery.c.o
 .rodata.str1.1
                0x000000000002bde6       0x12 /home/zxli/code/parrot-groundsdk/out/olympe-linux/build/libarsdkctrl/obj/libarsdkctrl/src/arsdk_ctrl.c.o
 *fill*         0x000000000002bde6        0x2 
 .rodata.str1.8
                0x000000000002bde8      0x150 /home/zxli/code/parrot-groundsdk/out/olympe-linux/build/libarsdkctrl/obj/libarsdkctrl/src/arsdk_ctrl.c.o
 *fill*         0x000000000002bf38        0x8 
 .rodata        0x000000000002bf40      0x10f /home/zxli/code/parrot-groundsdk/out/olympe-linux/build/libarsdkctrl/obj/libarsdkctrl/src/arsdk_ctrl.c.o
 .rodata.str1.1
                0x000000000002c04f       0x12 /home/zxli/code/parrot-groundsdk/out/olympe-linux/build/libarsdkctrl/obj/libarsdkctrl/src/arsdkctrl_backend.c.o
 *fill*         0x000000000002c04f       0x11 
 .rodata        0x000000000002c060       0xe6 /home/zxli/code/parrot-groundsdk/out/olympe-linux/build/libarsdkctrl/obj/libarsdkctrl/src/arsdkctrl_backend.c.o
 .rodata.str1.1
                0x000000000002c146       0xa5 /home/zxli/code/parrot-groundsdk/out/olympe-linux/build/libarsdkctrl/obj/libarsdkctrl/src/arsdk_media_itf.c.o
                                         0xc1 (size before relaxing)
 *fill*         0x000000000002c1eb       0x15 
 .rodata        0x000000000002c200      0x3c4 /home/zxli/code/parrot-groundsdk/out/olympe-linux/build/libarsdkctrl/obj/libarsdkctrl/src/arsdk_media_itf.c.o
 .rodata.str1.1
                0x000000000002c5c4       0x12 /home/zxli/code/parrot-groundsdk/out/olympe-linux/build/libarsdkctrl/obj/libarsdkctrl/src/arsdk_updater_itf.c.o
 *fill*         0x000000000002c5c4       0x1c 
 .rodata        0x000000000002c5e0      0x226 /home/zxli/code/parrot-groundsdk/out/olympe-linux/build/libarsdkctrl/obj/libarsdkctrl/src/arsdk_updater_itf.c.o
 .rodata.str1.1
                0x000000000002c806       0x2a /home/zxli/code/parrot-groundsdk/out/olympe-linux/build/libarsdkctrl/obj/libarsdkctrl/src/arsdk_blackbox_itf.c.o
                                         0x56 (size before relaxing)
 .rodata.str1.8
                0x000000000002c830       0x20 /home/zxli/code/parrot-groundsdk/out/olympe-linux/build/libarsdkctrl/obj/libarsdkctrl/src/arsdk_blackbox_itf.c.o
 *fill*         0x000000000002c850       0x10 
 .rodata        0x000000000002c860      0x147 /home/zxli/code/parrot-groundsdk/out/olympe-linux/build/libarsdkctrl/obj/libarsdkctrl/src/arsdk_blackbox_itf.c.o
 .rodata.str1.1
                0x000000000002c9a7       0xc6 /home/zxli/code/parrot-groundsdk/out/olympe-linux/build/libarsdkctrl/obj/libarsdkctrl/src/arsdk_crashml_itf.c.o
                                        0x127 (size before relaxing)
 *fill*         0x000000000002ca6d        0x3 
 .rodata.str1.8
                0x000000000002ca70       0x54 /home/zxli/code/parrot-groundsdk/out/olympe-linux/build/libarsdkctrl/obj/libarsdkctrl/src/arsdk_crashml_itf.c.o
 *fill*         0x000000000002cac4        0xc 
 .rodata        0x000000000002cad0      0x2a6 /home/zxli/code/parrot-groundsdk/out/olympe-linux/build/libarsdkctrl/obj/libarsdkctrl/src/arsdk_crashml_itf.c.o
 .rodata.str1.1
                0x000000000002cd76       0x2e /home/zxli/code/parrot-groundsdk/out/olympe-linux/build/libarsdkctrl/obj/libarsdkctrl/src/arsdk_flight_log_itf.c.o
                                         0xfe (size before relaxing)
 *fill*         0x000000000002cda4       0x1c 
 .rodata        0x000000000002cdc0      0x1f9 /home/zxli/code/parrot-groundsdk/out/olympe-linux/build/libarsdkctrl/obj/libarsdkctrl/src/arsdk_flight_log_itf.c.o
 .rodata.str1.1
                0x000000000002cfb9       0x38 /home/zxli/code/parrot-groundsdk/out/olympe-linux/build/libarsdkctrl/obj/libarsdkctrl/src/arsdk_pud_itf.c.o
                                         0xe3 (size before relaxing)
 *fill*         0x000000000002cff1        0xf 
 .rodata        0x000000000002d000      0x1e2 /home/zxli/code/parrot-groundsdk/out/olympe-linux/build/libarsdkctrl/obj/libarsdkctrl/src/arsdk_pud_itf.c.o
 .rodata.str1.1
                0x000000000002d1e2       0x2d /home/zxli/code/parrot-groundsdk/out/olympe-linux/build/libarsdkctrl/obj/libarsdkctrl/src/arsdk_ephemeris_itf.c.o
                                         0x5d (size before relaxing)
 *fill*         0x000000000002d20f       0x11 
 .rodata        0x000000000002d220      0x188 /home/zxli/code/parrot-groundsdk/out/olympe-linux/build/libarsdkctrl/obj/libarsdkctrl/src/arsdk_ephemeris_itf.c.o
 .rodata.str1.1
                0x000000000002d3a8       0x21 /home/zxli/code/parrot-groundsdk/out/olympe-linux/build/libarsdkctrl/obj/libarsdkctrl/src/arsdk_md5.c.o
 .rodata.str1.1
                0x000000000002d3c9       0x12 /home/zxli/code/parrot-groundsdk/out/olympe-linux/build/libarsdkctrl/obj/libarsdkctrl/src/updater/arsdk_updater_transport.c.o
 *fill*         0x000000000002d3c9       0x17 
 .rodata        0x000000000002d3e0      0x10c /home/zxli/code/parrot-groundsdk/out/olympe-linux/build/libarsdkctrl/obj/libarsdkctrl/src/updater/arsdk_updater_transport.c.o
 .rodata.str1.1
                0x000000000002d4ec      0x122 /home/zxli/code/parrot-groundsdk/out/olympe-linux/build/libarsdkctrl/obj/libarsdkctrl/src/updater/arsdk_updater_transport_ftp.c.o
                                        0x16a (size before relaxing)
 *fill*         0x000000000002d60e        0x2 
 .rodata.str1.8
                0x000000000002d610       0x7f /home/zxli/code/parrot-groundsdk/out/olympe-linux/build/libarsdkctrl/obj/libarsdkctrl/src/updater/arsdk_updater_transport_ftp.c.o
 *fill*         0x000000000002d68f       0x11 
 .rodata        0x000000000002d6a0      0x220 /home/zxli/code/parrot-groundsdk/out/olympe-linux/build/libarsdkctrl/obj/libarsdkctrl/src/updater/arsdk_updater_transport_ftp.c.o
 .rodata.cst8   0x000000000002d8c0        0x8 /home/zxli/code/parrot-groundsdk/out/olympe-linux/build/libarsdkctrl/obj/libarsdkctrl/src/updater/arsdk_updater_transport_ftp.c.o
 .rodata.str1.1
                0x000000000002d8c8      0x178 /home/zxli/code/parrot-groundsdk/out/olympe-linux/build/libarsdkctrl/obj/libarsdkctrl/src/updater/arsdk_updater_transport_mux.c.o
                                        0x1be (size before relaxing)
 .rodata.str1.8
                0x000000000002da40       0x80 /home/zxli/code/parrot-groundsdk/out/olympe-linux/build/libarsdkctrl/obj/libarsdkctrl/src/updater/arsdk_updater_transport_mux.c.o
                                         0xb0 (size before relaxing)
 .rodata        0x000000000002dac0      0x240 /home/zxli/code/parrot-groundsdk/out/olympe-linux/build/libarsdkctrl/obj/libarsdkctrl/src/updater/arsdk_updater_transport_mux.c.o
 .rodata.cst4   0x000000000002dd00        0x4 /home/zxli/code/parrot-groundsdk/out/olympe-linux/build/libarsdkctrl/obj/libarsdkctrl/src/updater/arsdk_updater_transport_mux.c.o
 .rodata.str1.1
                0x000000000002dd04      0x107 /home/zxli/code/parrot-groundsdk/out/olympe-linux/build/libarsdkctrl/obj/libarsdkctrl/src/arsdk_ftp_itf.c.o
                                        0x151 (size before relaxing)
 *fill*         0x000000000002de0b        0x5 
 .rodata.str1.8
                0x000000000002de10      0x12c /home/zxli/code/parrot-groundsdk/out/olympe-linux/build/libarsdkctrl/obj/libarsdkctrl/src/arsdk_ftp_itf.c.o
 *fill*         0x000000000002df3c        0x4 
 .rodata        0x000000000002df40      0x3f2 /home/zxli/code/parrot-groundsdk/out/olympe-linux/build/libarsdkctrl/obj/libarsdkctrl/src/arsdk_ftp_itf.c.o
 *fill*         0x000000000002e332        0x6 
 .rodata.cst8   0x000000000002e338       0x10 /home/zxli/code/parrot-groundsdk/out/olympe-linux/build/libarsdkctrl/obj/libarsdkctrl/src/arsdk_ftp_itf.c.o
 .rodata.str1.1
                0x000000000002e348      0x195 /home/zxli/code/parrot-groundsdk/out/olympe-linux/build/libarsdkctrl/obj/libarsdkctrl/src/arsdk_device.c.o
                                        0x1eb (size before relaxing)
 *fill*         0x000000000002e4dd        0x3 
 .rodata.str1.8
                0x000000000002e4e0       0x29 /home/zxli/code/parrot-groundsdk/out/olympe-linux/build/libarsdkctrl/obj/libarsdkctrl/src/arsdk_device.c.o
 *fill*         0x000000000002e509       0x17 
 .rodata        0x000000000002e520      0x408 /home/zxli/code/parrot-groundsdk/out/olympe-linux/build/libarsdkctrl/obj/libarsdkctrl/src/arsdk_device.c.o
 .rodata.str1.1
                0x000000000002e928      0x11a /home/zxli/code/parrot-groundsdk/out/olympe-linux/build/libarsdkctrl/obj/libarsdkctrl/src/net/arsdkctrl_backend_net.c.o
                                        0x14c (size before relaxing)
 *fill*         0x000000000002ea42        0x6 
 .rodata.str1.8
                0x000000000002ea48       0x50 /home/zxli/code/parrot-groundsdk/out/olympe-linux/build/libarsdkctrl/obj/libarsdkctrl/src/net/arsdkctrl_backend_net.c.o
 *fill*         0x000000000002ea98        0x8 
 .rodata        0x000000000002eaa0      0x17a /home/zxli/code/parrot-groundsdk/out/olympe-linux/build/libarsdkctrl/obj/libarsdkctrl/src/net/arsdkctrl_backend_net.c.o
 .rodata.str1.1
                0x000000000002ec1a       0x2e /home/zxli/code/parrot-groundsdk/out/olympe-linux/build/libarsdkctrl/obj/libarsdkctrl/src/net/arsdk_avahi_loop.c.o
                                         0x55 (size before relaxing)
 *fill*         0x000000000002ec48        0x8 
 .rodata        0x000000000002ec50       0x75 /home/zxli/code/parrot-groundsdk/out/olympe-linux/build/libarsdkctrl/obj/libarsdkctrl/src/net/arsdk_avahi_loop.c.o
 .rodata.str1.1
                0x000000000002ecc5       0xce /home/zxli/code/parrot-groundsdk/out/olympe-linux/build/libarsdkctrl/obj/libarsdkctrl/src/net/arsdk_discovery_avahi.c.o
                                         0xff (size before relaxing)
 *fill*         0x000000000002ed93        0x5 
 .rodata.str1.8
                0x000000000002ed98       0x97 /home/zxli/code/parrot-groundsdk/out/olympe-linux/build/libarsdkctrl/obj/libarsdkctrl/src/net/arsdk_discovery_avahi.c.o
 *fill*         0x000000000002ee2f        0x1 
 .rodata        0x000000000002ee30       0xea /home/zxli/code/parrot-groundsdk/out/olympe-linux/build/libarsdkctrl/obj/libarsdkctrl/src/net/arsdk_discovery_avahi.c.o
 .rodata.str1.1
                0x000000000002ef1a       0x50 /home/zxli/code/parrot-groundsdk/out/olympe-linux/build/libarsdkctrl/obj/libarsdkctrl/src/net/arsdk_discovery_net.c.o
                                         0xd7 (size before relaxing)
 *fill*         0x000000000002ef6a       0x16 
 .rodata        0x000000000002ef80       0xa2 /home/zxli/code/parrot-groundsdk/out/olympe-linux/build/libarsdkctrl/obj/libarsdkctrl/src/net/arsdk_discovery_net.c.o
 .rodata.str1.1
                0x000000000002f022       0xe3 /home/zxli/code/parrot-groundsdk/out/olympe-linux/build/libarsdkctrl/obj/libarsdkctrl/src/mux/arsdkctrl_backend_mux.c.o
                                        0x18c (size before relaxing)
 *fill*         0x000000000002f105        0x3 
 .rodata.str1.8
                0x000000000002f108       0x65 /home/zxli/code/parrot-groundsdk/out/olympe-linux/build/libarsdkctrl/obj/libarsdkctrl/src/mux/arsdkctrl_backend_mux.c.o
                                         0xb5 (size before relaxing)
 *fill*         0x000000000002f16d       0x13 
 .rodata        0x000000000002f180      0x12a /home/zxli/code/parrot-groundsdk/out/olympe-linux/build/libarsdkctrl/obj/libarsdkctrl/src/mux/arsdkctrl_backend_mux.c.o
 .rodata.str1.1
                0x000000000002f2aa       0x3d /home/zxli/code/parrot-groundsdk/out/olympe-linux/build/libarsdkctrl/obj/libarsdkctrl/src/mux/arsdk_discovery_mux.c.o
                                         0xcb (size before relaxing)
 *fill*         0x000000000002f2e7        0x1 
 .rodata.str1.8
                0x000000000002f2e8       0x4f /home/zxli/code/parrot-groundsdk/out/olympe-linux/build/libarsdkctrl/obj/libarsdkctrl/src/mux/arsdk_discovery_mux.c.o
 *fill*         0x000000000002f337        0x9 
 .rodata        0x000000000002f340      0x108 /home/zxli/code/parrot-groundsdk/out/olympe-linux/build/libarsdkctrl/obj/libarsdkctrl/src/mux/arsdk_discovery_mux.c.o
 .rodata.str1.1
                0x000000000002f448       0x63 /home/zxli/code/parrot-groundsdk/out/olympe-linux/build/libarsdkctrl/obj/libarsdkctrl/src/ftp/arsdk_ftp.c.o
                                         0x76 (size before relaxing)
 *fill*         0x000000000002f4ab        0x5 
 .rodata        0x000000000002f4b0      0x216 /home/zxli/code/parrot-groundsdk/out/olympe-linux/build/libarsdkctrl/obj/libarsdkctrl/src/ftp/arsdk_ftp.c.o
 .rodata.cst8   0x000000000002f6c6       0x10 /home/zxli/code/parrot-groundsdk/out/olympe-linux/build/libarsdkctrl/obj/libarsdkctrl/src/ftp/arsdk_ftp.c.o
 .rodata.str1.1
                0x000000000002f6c6       0x36 /home/zxli/code/parrot-groundsdk/out/olympe-linux/build/libarsdkctrl/obj/libarsdkctrl/src/ftp/arsdk_ftp_conn.c.o
                                         0x49 (size before relaxing)
 *fill*         0x000000000002f6fc        0x4 
 .rodata.str1.8
                0x000000000002f700       0x40 /home/zxli/code/parrot-groundsdk/out/olympe-linux/build/libarsdkctrl/obj/libarsdkctrl/src/ftp/arsdk_ftp_conn.c.o
                                         0x3f (size before relaxing)
 .rodata        0x000000000002f740      0x144 /home/zxli/code/parrot-groundsdk/out/olympe-linux/build/libarsdkctrl/obj/libarsdkctrl/src/ftp/arsdk_ftp_conn.c.o
 .rodata.str1.1
                0x000000000002f884       0x12 /home/zxli/code/parrot-groundsdk/out/olympe-linux/build/libarsdkctrl/obj/libarsdkctrl/src/ftp/arsdk_ftp_seq.c.o
 *fill*         0x000000000002f884        0xc 
 .rodata        0x000000000002f890      0x1d2 /home/zxli/code/parrot-groundsdk/out/olympe-linux/build/libarsdkctrl/obj/libarsdkctrl/src/ftp/arsdk_ftp_seq.c.o
 .rodata.str1.1
                0x000000000002fa62       0x1a /home/zxli/code/parrot-groundsdk/out/olympe-linux/build/libarsdkctrl/obj/libarsdkctrl/src/ftp/arsdk_ftp_cmd.c.o
                                         0x33 (size before relaxing)
 *fill*         0x000000000002fa7c        0x4 
 .rodata        0x000000000002fa80       0x42 /home/zxli/code/parrot-groundsdk/out/olympe-linux/build/libarsdkctrl/obj/libarsdkctrl/src/ftp/arsdk_ftp_cmd.c.o

.rodata1
 *(.rodata1)

.eh_frame_hdr   0x000000000002fac4      0xefc
 *(.eh_frame_hdr)
 .eh_frame_hdr  0x000000000002fac4      0xefc /home/zxli/code/parrot-groundsdk/out/olympe-linux/build/libarsdkctrl/obj/libarsdkctrl/src/arsdk_discovery.c.o
                0x000000000002fac4                __GNU_EH_FRAME_HDR
 *(.eh_frame_entry .eh_frame_entry.*)

.eh_frame       0x00000000000309c0     0x75b4
 *(.eh_frame)
 .eh_frame      0x00000000000309c0       0x40 /usr/lib/gcc/x86_64-linux-gnu/7/../../../x86_64-linux-gnu/crti.o
 .eh_frame      0x0000000000030a00       0x18 /usr/lib/gcc/x86_64-linux-gnu/7/../../../x86_64-linux-gnu/crti.o
                                         0x30 (size before relaxing)
 .eh_frame      0x0000000000030a18      0x268 /home/zxli/code/parrot-groundsdk/out/olympe-linux/build/libarsdkctrl/obj/libarsdkctrl/src/arsdk_discovery.c.o
                                        0x280 (size before relaxing)
 .eh_frame      0x0000000000030c80      0x368 /home/zxli/code/parrot-groundsdk/out/olympe-linux/build/libarsdkctrl/obj/libarsdkctrl/src/arsdk_ctrl.c.o
                                        0x380 (size before relaxing)
 .eh_frame      0x0000000000030fe8      0x1f8 /home/zxli/code/parrot-groundsdk/out/olympe-linux/build/libarsdkctrl/obj/libarsdkctrl/src/arsdkctrl_backend.c.o
                                        0x210 (size before relaxing)
 .eh_frame      0x00000000000311e0      0x9f8 /home/zxli/code/parrot-groundsdk/out/olympe-linux/build/libarsdkctrl/obj/libarsdkctrl/src/arsdk_media_itf.c.o
                                        0xa10 (size before relaxing)
 .eh_frame      0x0000000000031bd8      0x318 /home/zxli/code/parrot-groundsdk/out/olympe-linux/build/libarsdkctrl/obj/libarsdkctrl/src/arsdk_updater_itf.c.o
                                        0x348 (size before relaxing)
 .eh_frame      0x0000000000031ef0      0x1e0 /home/zxli/code/parrot-groundsdk/out/olympe-linux/build/libarsdkctrl/obj/libarsdkctrl/src/arsdk_blackbox_itf.c.o
                                        0x1f8 (size before relaxing)
 .eh_frame      0x00000000000320d0      0x828 /home/zxli/code/parrot-groundsdk/out/olympe-linux/build/libarsdkctrl/obj/libarsdkctrl/src/arsdk_crashml_itf.c.o
                                        0x840 (size before relaxing)
 .eh_frame      0x00000000000328f8      0x5e8 /home/zxli/code/parrot-groundsdk/out/olympe-linux/build/libarsdkctrl/obj/libarsdkctrl/src/arsdk_flight_log_itf.c.o
                                        0x600 (size before relaxing)
 .eh_frame      0x0000000000032ee0      0x5a8 /home/zxli/code/parrot-groundsdk/out/olympe-linux/build/libarsdkctrl/obj/libarsdkctrl/src/arsdk_pud_itf.c.o
                                        0x5c0 (size before relaxing)
 .eh_frame      0x0000000000033488      0x3c0 /home/zxli/code/parrot-groundsdk/out/olympe-linux/build/libarsdkctrl/obj/libarsdkctrl/src/arsdk_ephemeris_itf.c.o
                                        0x3d8 (size before relaxing)
 .eh_frame      0x0000000000033848      0x158 /home/zxli/code/parrot-groundsdk/out/olympe-linux/build/libarsdkctrl/obj/libarsdkctrl/src/arsdk_md5.c.o
                                        0x180 (size before relaxing)
 .eh_frame      0x00000000000339a0      0x190 /home/zxli/code/parrot-groundsdk/out/olympe-linux/build/libarsdkctrl/obj/libarsdkctrl/src/updater/arsdk_updater_transport.c.o
                                        0x1e0 (size before relaxing)
 .eh_frame      0x0000000000033b30      0x478 /home/zxli/code/parrot-groundsdk/out/olympe-linux/build/libarsdkctrl/obj/libarsdkctrl/src/updater/arsdk_updater_transport_ftp.c.o
                                        0x490 (size before relaxing)
 .eh_frame      0x0000000000033fa8      0x4a0 /home/zxli/code/parrot-groundsdk/out/olympe-linux/build/libarsdkctrl/obj/libarsdkctrl/src/updater/arsdk_updater_transport_mux.c.o
                                        0x4b8 (size before relaxing)
 .eh_frame      0x0000000000034448     0x10f0 /home/zxli/code/parrot-groundsdk/out/olympe-linux/build/libarsdkctrl/obj/libarsdkctrl/src/arsdk_ftp_itf.c.o
                                       0x1108 (size before relaxing)
 .eh_frame      0x0000000000035538      0x950 /home/zxli/code/parrot-groundsdk/out/olympe-linux/build/libarsdkctrl/obj/libarsdkctrl/src/arsdk_device.c.o
                                        0x9b0 (size before relaxing)
 .eh_frame      0x0000000000035e88      0x3f0 /home/zxli/code/parrot-groundsdk/out/olympe-linux/build/libarsdkctrl/obj/libarsdkctrl/src/net/arsdkctrl_backend_net.c.o
                                        0x408 (size before relaxing)
 .eh_frame      0x0000000000036278      0x278 /home/zxli/code/parrot-groundsdk/out/olympe-linux/build/libarsdkctrl/obj/libarsdkctrl/src/net/arsdk_avahi_loop.c.o
                                        0x290 (size before relaxing)
 .eh_frame      0x00000000000364f0      0x338 /home/zxli/code/parrot-groundsdk/out/olympe-linux/build/libarsdkctrl/obj/libarsdkctrl/src/net/arsdk_discovery_avahi.c.o
                                        0x350 (size before relaxing)
 .eh_frame      0x0000000000036828      0x270 /home/zxli/code/parrot-groundsdk/out/olympe-linux/build/libarsdkctrl/obj/libarsdkctrl/src/net/arsdk_discovery_net.c.o
                                        0x288 (size before relaxing)
 .eh_frame      0x0000000000036a98      0x340 /home/zxli/code/parrot-groundsdk/out/olympe-linux/build/libarsdkctrl/obj/libarsdkctrl/src/mux/arsdkctrl_backend_mux.c.o
                                        0x358 (size before relaxing)
 .eh_frame      0x0000000000036dd8      0x278 /home/zxli/code/parrot-groundsdk/out/olympe-linux/build/libarsdkctrl/obj/libarsdkctrl/src/mux/arsdk_discovery_mux.c.o
                                        0x290 (size before relaxing)
 .eh_frame      0x0000000000037050      0x6c0 /home/zxli/code/parrot-groundsdk/out/olympe-linux/build/libarsdkctrl/obj/libarsdkctrl/src/ftp/arsdk_ftp.c.o
                                        0x6d8 (size before relaxing)
 .eh_frame      0x0000000000037710      0x338 /home/zxli/code/parrot-groundsdk/out/olympe-linux/build/libarsdkctrl/obj/libarsdkctrl/src/ftp/arsdk_ftp_conn.c.o
                                        0x350 (size before relaxing)
 .eh_frame      0x0000000000037a48      0x4a0 /home/zxli/code/parrot-groundsdk/out/olympe-linux/build/libarsdkctrl/obj/libarsdkctrl/src/ftp/arsdk_ftp_seq.c.o
                                        0x4b8 (size before relaxing)
 .eh_frame      0x0000000000037ee8       0x88 /home/zxli/code/parrot-groundsdk/out/olympe-linux/build/libarsdkctrl/obj/libarsdkctrl/src/ftp/arsdk_ftp_cmd.c.o
                                         0xa0 (size before relaxing)
 .eh_frame      0x0000000000037f70        0x4 /usr/lib/gcc/x86_64-linux-gnu/7/crtendS.o
 *(.eh_frame.*)

.gcc_except_table
 *(.gcc_except_table .gcc_except_table.*)

.gnu_extab
 *(.gnu_extab*)

.exception_ranges
 *(.exception_ranges .exception_ranges*)
                0x0000000000238670                . = DATA_SEGMENT_ALIGN (CONSTANT (MAXPAGESIZE), CONSTANT (COMMONPAGESIZE))

.eh_frame
 *(.eh_frame)
 *(.eh_frame.*)

.gnu_extab
 *(.gnu_extab)

.gcc_except_table
 *(.gcc_except_table .gcc_except_table.*)

.exception_ranges
 *(.exception_ranges .exception_ranges*)

.tdata
 *(.tdata .tdata.* .gnu.linkonce.td.*)

.tbss
 *(.tbss .tbss.* .gnu.linkonce.tb.*)
 *(.tcommon)

.preinit_array
 *(.preinit_array)

.init_array     0x0000000000238670        0x8
 *(SORT_BY_INIT_PRIORITY(.init_array.*) SORT_BY_INIT_PRIORITY(.ctors.*))
 *(.init_array EXCLUDE_FILE(*crtend?.o *crtend.o *crtbegin?.o *crtbegin.o) .ctors)
 .init_array    0x0000000000238670        0x8 /usr/lib/gcc/x86_64-linux-gnu/7/crtbeginS.o

.fini_array     0x0000000000238678        0x8
 *(SORT_BY_INIT_PRIORITY(.fini_array.*) SORT_BY_INIT_PRIORITY(.dtors.*))
 *(.fini_array EXCLUDE_FILE(*crtend?.o *crtend.o *crtbegin?.o *crtbegin.o) .dtors)
 .fini_array    0x0000000000238678        0x8 /usr/lib/gcc/x86_64-linux-gnu/7/crtbeginS.o

.ctors
 *crtbegin.o(.ctors)
 *crtbegin?.o(.ctors)
 *(EXCLUDE_FILE(*crtend?.o *crtend.o) .ctors)
 *(SORT_BY_NAME(.ctors.*))
 *(.ctors)

.dtors
 *crtbegin.o(.dtors)
 *crtbegin?.o(.dtors)
 *(EXCLUDE_FILE(*crtend?.o *crtend.o) .dtors)
 *(SORT_BY_NAME(.dtors.*))
 *(.dtors)

.jcr
 *(.jcr)

.data.rel.ro    0x0000000000238680      0x6e8
 *(.data.rel.ro.local* .gnu.linkonce.d.rel.ro.local.*)
 .data.rel.ro.local
                0x0000000000238680       0x70 /home/zxli/code/parrot-groundsdk/out/olympe-linux/build/libarsdkctrl/obj/libarsdkctrl/src/arsdk_media_itf.c.o
 *fill*         0x00000000002386f0       0x10 
 .data.rel.ro.local
                0x0000000000238700      0x180 /home/zxli/code/parrot-groundsdk/out/olympe-linux/build/libarsdkctrl/obj/libarsdkctrl/src/updater/arsdk_updater_transport_ftp.c.o
 .data.rel.ro.local
                0x0000000000238880       0x20 /home/zxli/code/parrot-groundsdk/out/olympe-linux/build/libarsdkctrl/obj/libarsdkctrl/src/updater/arsdk_updater_transport_mux.c.o
 .data.rel.ro.local
                0x00000000002388a0      0x130 /home/zxli/code/parrot-groundsdk/out/olympe-linux/build/libarsdkctrl/obj/libarsdkctrl/src/arsdk_ftp_itf.c.o
 *fill*         0x00000000002389d0       0x10 
 .data.rel.ro.local
                0x00000000002389e0      0x140 /home/zxli/code/parrot-groundsdk/out/olympe-linux/build/libarsdkctrl/obj/libarsdkctrl/src/arsdk_device.c.o
 .data.rel.ro.local
                0x0000000000238b20       0x18 /home/zxli/code/parrot-groundsdk/out/olympe-linux/build/libarsdkctrl/obj/libarsdkctrl/src/net/arsdkctrl_backend_net.c.o
 *fill*         0x0000000000238b38        0x8 
 .data.rel.ro.local
                0x0000000000238b40       0x18 /home/zxli/code/parrot-groundsdk/out/olympe-linux/build/libarsdkctrl/obj/libarsdkctrl/src/mux/arsdkctrl_backend_mux.c.o
 *fill*         0x0000000000238b58        0x8 
 .data.rel.ro.local
                0x0000000000238b60      0x1c8 /home/zxli/code/parrot-groundsdk/out/olympe-linux/build/libarsdkctrl/obj/libarsdkctrl/src/ftp/arsdk_ftp.c.o
 *fill*         0x0000000000238d28        0x8 
 .data.rel.ro.local
                0x0000000000238d30       0x38 /home/zxli/code/parrot-groundsdk/out/olympe-linux/build/libarsdkctrl/obj/libarsdkctrl/src/ftp/arsdk_ftp_conn.c.o
 *(.data.rel.ro .data.rel.ro.* .gnu.linkonce.d.rel.ro.*)
 .data.rel.ro   0x0000000000238d68        0x0 /usr/lib/gcc/x86_64-linux-gnu/7/../../../x86_64-linux-gnu/crti.o

.dynamic        0x0000000000238d68      0x260
 *(.dynamic)
 .dynamic       0x0000000000238d68      0x260 /usr/lib/gcc/x86_64-linux-gnu/7/../../../x86_64-linux-gnu/crti.o
                0x0000000000238d68                _DYNAMIC

.got            0x0000000000238fc8       0x20
 *(.got)
 .got           0x0000000000238fc8       0x20 /usr/lib/gcc/x86_64-linux-gnu/7/../../../x86_64-linux-gnu/crti.o
 *(.igot)
                0x0000000000238fe8                . = DATA_SEGMENT_RELRO_END (., (SIZEOF (.got.plt) >= 0x18)?0x18:0x0)

.got.plt        0x0000000000239000      0x688
 *(.got.plt)
 .got.plt       0x0000000000239000      0x688 /usr/lib/gcc/x86_64-linux-gnu/7/../../../x86_64-linux-gnu/crti.o
                0x0000000000239000                _GLOBAL_OFFSET_TABLE_
 *(.igot.plt)

.data           0x00000000002396a0       0xa0
 *(.data .data.* .gnu.linkonce.d.*)
 .data.rel.local
                0x00000000002396a0        0x8 /usr/lib/gcc/x86_64-linux-gnu/7/crtbeginS.o
                0x00000000002396a0                __dso_handle
 *fill*         0x00000000002396a8       0x18 
 .data.rel.local
                0x00000000002396c0       0x20 /home/zxli/code/parrot-groundsdk/out/olympe-linux/build/libarsdkctrl/obj/libarsdkctrl/src/arsdkctrl_log.c.o
                0x00000000002396c0                __ulog_cookie_arsdkctrl
 .data.rel.local
                0x00000000002396e0       0x20 /home/zxli/code/parrot-groundsdk/out/olympe-linux/build/libarsdkctrl/obj/libarsdkctrl/src/net/arsdkctrl_backend_net.c.o
                0x00000000002396e0                __ulog_cookie_arsdkctrl_net
 .data.rel.local
                0x0000000000239700       0x20 /home/zxli/code/parrot-groundsdk/out/olympe-linux/build/libarsdkctrl/obj/libarsdkctrl/src/mux/arsdkctrl_backend_mux.c.o
                0x0000000000239700                __ulog_cookie_arsdkctrl_mux
 .data.rel.local
                0x0000000000239720       0x20 /home/zxli/code/parrot-groundsdk/out/olympe-linux/build/libarsdkctrl/obj/libarsdkctrl/src/ftp/arsdk_ftp.c.o
                0x0000000000239720                __ulog_cookie_arsdk_ftp

.tm_clone_table
                0x0000000000239740        0x0
 .tm_clone_table
                0x0000000000239740        0x0 /usr/lib/gcc/x86_64-linux-gnu/7/crtbeginS.o
 .tm_clone_table
                0x0000000000239740        0x0 /usr/lib/gcc/x86_64-linux-gnu/7/crtendS.o

.data1
 *(.data1)
                0x0000000000239740                _edata = .
                [!provide]                        PROVIDE (edata = .)
                0x0000000000239740                . = .
                0x0000000000239740                __bss_start = .

.bss            0x0000000000239740        0x8
 *(.dynbss)
 .dynbss        0x0000000000239740        0x0 /usr/lib/gcc/x86_64-linux-gnu/7/../../../x86_64-linux-gnu/crti.o
 *(.bss .bss.* .gnu.linkonce.b.*)
 .bss           0x0000000000239740        0x1 /usr/lib/gcc/x86_64-linux-gnu/7/crtbeginS.o
 *(COMMON)
                0x0000000000239748                . = ALIGN ((. != 0x0)?0x8:0x1)
 *fill*         0x0000000000239741        0x7 

.lbss
 *(.dynlbss)
 *(.lbss .lbss.* .gnu.linkonce.lb.*)
 *(LARGE_COMMON)
                0x0000000000239748                . = ALIGN (0x8)
                0x0000000000239748                . = SEGMENT_START ("ldata-segment", .)

.lrodata
 *(.lrodata .lrodata.* .gnu.linkonce.lr.*)

.ldata          0x0000000000639748        0x0
 *(.ldata .ldata.* .gnu.linkonce.l.*)
                0x0000000000639748                . = ALIGN ((. != 0x0)?0x8:0x1)
                0x0000000000639748                . = ALIGN (0x8)
                0x0000000000639748                _end = .
                [!provide]                        PROVIDE (end = .)
                0x0000000000639748                . = DATA_SEGMENT_END (.)

.stab
 *(.stab)

.stabstr
 *(.stabstr)

.stab.excl
 *(.stab.excl)

.stab.exclstr
 *(.stab.exclstr)

.stab.index
 *(.stab.index)

.stab.indexstr
 *(.stab.indexstr)

.comment        0x0000000000000000       0x29
 *(.comment)
 .comment       0x0000000000000000       0x29 /usr/lib/gcc/x86_64-linux-gnu/7/crtbeginS.o
                                         0x2a (size before relaxing)
 .comment       0x0000000000000029       0x2a /home/zxli/code/parrot-groundsdk/out/olympe-linux/build/libarsdkctrl/obj/libarsdkctrl/src/arsdkctrl_log.c.o
 .comment       0x0000000000000029       0x2a /home/zxli/code/parrot-groundsdk/out/olympe-linux/build/libarsdkctrl/obj/libarsdkctrl/src/arsdk_discovery.c.o
 .comment       0x0000000000000029       0x2a /home/zxli/code/parrot-groundsdk/out/olympe-linux/build/libarsdkctrl/obj/libarsdkctrl/src/arsdk_ctrl.c.o
 .comment       0x0000000000000029       0x2a /home/zxli/code/parrot-groundsdk/out/olympe-linux/build/libarsdkctrl/obj/libarsdkctrl/src/arsdkctrl_backend.c.o
 .comment       0x0000000000000029       0x2a /home/zxli/code/parrot-groundsdk/out/olympe-linux/build/libarsdkctrl/obj/libarsdkctrl/src/arsdk_media_itf.c.o
 .comment       0x0000000000000029       0x2a /home/zxli/code/parrot-groundsdk/out/olympe-linux/build/libarsdkctrl/obj/libarsdkctrl/src/arsdk_updater_itf.c.o
 .comment       0x0000000000000029       0x2a /home/zxli/code/parrot-groundsdk/out/olympe-linux/build/libarsdkctrl/obj/libarsdkctrl/src/arsdk_blackbox_itf.c.o
 .comment       0x0000000000000029       0x2a /home/zxli/code/parrot-groundsdk/out/olympe-linux/build/libarsdkctrl/obj/libarsdkctrl/src/arsdk_crashml_itf.c.o
 .comment       0x0000000000000029       0x2a /home/zxli/code/parrot-groundsdk/out/olympe-linux/build/libarsdkctrl/obj/libarsdkctrl/src/arsdk_flight_log_itf.c.o
 .comment       0x0000000000000029       0x2a /home/zxli/code/parrot-groundsdk/out/olympe-linux/build/libarsdkctrl/obj/libarsdkctrl/src/arsdk_pud_itf.c.o
 .comment       0x0000000000000029       0x2a /home/zxli/code/parrot-groundsdk/out/olympe-linux/build/libarsdkctrl/obj/libarsdkctrl/src/arsdk_ephemeris_itf.c.o
 .comment       0x0000000000000029       0x2a /home/zxli/code/parrot-groundsdk/out/olympe-linux/build/libarsdkctrl/obj/libarsdkctrl/src/arsdk_md5.c.o
 .comment       0x0000000000000029       0x2a /home/zxli/code/parrot-groundsdk/out/olympe-linux/build/libarsdkctrl/obj/libarsdkctrl/src/updater/arsdk_updater_transport.c.o
 .comment       0x0000000000000029       0x2a /home/zxli/code/parrot-groundsdk/out/olympe-linux/build/libarsdkctrl/obj/libarsdkctrl/src/updater/arsdk_updater_transport_ftp.c.o
 .comment       0x0000000000000029       0x2a /home/zxli/code/parrot-groundsdk/out/olympe-linux/build/libarsdkctrl/obj/libarsdkctrl/src/updater/arsdk_updater_transport_mux.c.o
 .comment       0x0000000000000029       0x2a /home/zxli/code/parrot-groundsdk/out/olympe-linux/build/libarsdkctrl/obj/libarsdkctrl/src/arsdk_ftp_itf.c.o
 .comment       0x0000000000000029       0x2a /home/zxli/code/parrot-groundsdk/out/olympe-linux/build/libarsdkctrl/obj/libarsdkctrl/src/arsdk_device.c.o
 .comment       0x0000000000000029       0x2a /home/zxli/code/parrot-groundsdk/out/olympe-linux/build/libarsdkctrl/obj/libarsdkctrl/src/net/arsdkctrl_backend_net.c.o
 .comment       0x0000000000000029       0x2a /home/zxli/code/parrot-groundsdk/out/olympe-linux/build/libarsdkctrl/obj/libarsdkctrl/src/net/arsdk_avahi_loop.c.o
 .comment       0x0000000000000029       0x2a /home/zxli/code/parrot-groundsdk/out/olympe-linux/build/libarsdkctrl/obj/libarsdkctrl/src/net/arsdk_discovery_avahi.c.o
 .comment       0x0000000000000029       0x2a /home/zxli/code/parrot-groundsdk/out/olympe-linux/build/libarsdkctrl/obj/libarsdkctrl/src/net/arsdk_discovery_net.c.o
 .comment       0x0000000000000029       0x2a /home/zxli/code/parrot-groundsdk/out/olympe-linux/build/libarsdkctrl/obj/libarsdkctrl/src/mux/arsdkctrl_backend_mux.c.o
 .comment       0x0000000000000029       0x2a /home/zxli/code/parrot-groundsdk/out/olympe-linux/build/libarsdkctrl/obj/libarsdkctrl/src/mux/arsdk_discovery_mux.c.o
 .comment       0x0000000000000029       0x2a /home/zxli/code/parrot-groundsdk/out/olympe-linux/build/libarsdkctrl/obj/libarsdkctrl/src/ftp/arsdk_ftp.c.o
 .comment       0x0000000000000029       0x2a /home/zxli/code/parrot-groundsdk/out/olympe-linux/build/libarsdkctrl/obj/libarsdkctrl/src/ftp/arsdk_ftp_conn.c.o
 .comment       0x0000000000000029       0x2a /home/zxli/code/parrot-groundsdk/out/olympe-linux/build/libarsdkctrl/obj/libarsdkctrl/src/ftp/arsdk_ftp_seq.c.o
 .comment       0x0000000000000029       0x2a /home/zxli/code/parrot-groundsdk/out/olympe-linux/build/libarsdkctrl/obj/libarsdkctrl/src/ftp/arsdk_ftp_cmd.c.o
 .comment       0x0000000000000029       0x2a /usr/lib/gcc/x86_64-linux-gnu/7/crtendS.o

.debug
 *(.debug)

.line
 *(.line)

.debug_srcinfo
 *(.debug_srcinfo)

.debug_sfnames
 *(.debug_sfnames)

.debug_aranges  0x0000000000000000     0x2140
 *(.debug_aranges)
 .debug_aranges
                0x0000000000000000       0x20 /home/zxli/code/parrot-groundsdk/out/olympe-linux/build/libarsdkctrl/obj/libarsdkctrl/src/arsdkctrl_log.c.o
 .debug_aranges
                0x0000000000000020       0xa0 /home/zxli/code/parrot-groundsdk/out/olympe-linux/build/libarsdkctrl/obj/libarsdkctrl/src/arsdk_discovery.c.o
 .debug_aranges
                0x00000000000000c0       0xe0 /home/zxli/code/parrot-groundsdk/out/olympe-linux/build/libarsdkctrl/obj/libarsdkctrl/src/arsdk_ctrl.c.o
 .debug_aranges
                0x00000000000001a0       0xc0 /home/zxli/code/parrot-groundsdk/out/olympe-linux/build/libarsdkctrl/obj/libarsdkctrl/src/arsdkctrl_backend.c.o
 .debug_aranges
                0x0000000000000260      0x320 /home/zxli/code/parrot-groundsdk/out/olympe-linux/build/libarsdkctrl/obj/libarsdkctrl/src/arsdk_media_itf.c.o
 .debug_aranges
                0x0000000000000580      0x100 /home/zxli/code/parrot-groundsdk/out/olympe-linux/build/libarsdkctrl/obj/libarsdkctrl/src/arsdk_updater_itf.c.o
 .debug_aranges
                0x0000000000000680       0x80 /home/zxli/code/parrot-groundsdk/out/olympe-linux/build/libarsdkctrl/obj/libarsdkctrl/src/arsdk_blackbox_itf.c.o
 .debug_aranges
                0x0000000000000700      0x1b0 /home/zxli/code/parrot-groundsdk/out/olympe-linux/build/libarsdkctrl/obj/libarsdkctrl/src/arsdk_crashml_itf.c.o
 .debug_aranges
                0x00000000000008b0      0x160 /home/zxli/code/parrot-groundsdk/out/olympe-linux/build/libarsdkctrl/obj/libarsdkctrl/src/arsdk_flight_log_itf.c.o
 .debug_aranges
                0x0000000000000a10      0x150 /home/zxli/code/parrot-groundsdk/out/olympe-linux/build/libarsdkctrl/obj/libarsdkctrl/src/arsdk_pud_itf.c.o
 .debug_aranges
                0x0000000000000b60      0x110 /home/zxli/code/parrot-groundsdk/out/olympe-linux/build/libarsdkctrl/obj/libarsdkctrl/src/arsdk_ephemeris_itf.c.o
 .debug_aranges
                0x0000000000000c70       0x80 /home/zxli/code/parrot-groundsdk/out/olympe-linux/build/libarsdkctrl/obj/libarsdkctrl/src/arsdk_md5.c.o
 .debug_aranges
                0x0000000000000cf0       0xa0 /home/zxli/code/parrot-groundsdk/out/olympe-linux/build/libarsdkctrl/obj/libarsdkctrl/src/updater/arsdk_updater_transport.c.o
 .debug_aranges
                0x0000000000000d90      0x130 /home/zxli/code/parrot-groundsdk/out/olympe-linux/build/libarsdkctrl/obj/libarsdkctrl/src/updater/arsdk_updater_transport_ftp.c.o
 .debug_aranges
                0x0000000000000ec0      0x120 /home/zxli/code/parrot-groundsdk/out/olympe-linux/build/libarsdkctrl/obj/libarsdkctrl/src/updater/arsdk_updater_transport_mux.c.o
 .debug_aranges
                0x0000000000000fe0      0x5a0 /home/zxli/code/parrot-groundsdk/out/olympe-linux/build/libarsdkctrl/obj/libarsdkctrl/src/arsdk_ftp_itf.c.o
 .debug_aranges
                0x0000000000001580      0x310 /home/zxli/code/parrot-groundsdk/out/olympe-linux/build/libarsdkctrl/obj/libarsdkctrl/src/arsdk_device.c.o
 .debug_aranges
                0x0000000000001890       0xf0 /home/zxli/code/parrot-groundsdk/out/olympe-linux/build/libarsdkctrl/obj/libarsdkctrl/src/net/arsdkctrl_backend_net.c.o
 .debug_aranges
                0x0000000000001980       0xf0 /home/zxli/code/parrot-groundsdk/out/olympe-linux/build/libarsdkctrl/obj/libarsdkctrl/src/net/arsdk_avahi_loop.c.o
 .debug_aranges
                0x0000000000001a70       0xb0 /home/zxli/code/parrot-groundsdk/out/olympe-linux/build/libarsdkctrl/obj/libarsdkctrl/src/net/arsdk_discovery_avahi.c.o
 .debug_aranges
                0x0000000000001b20       0xa0 /home/zxli/code/parrot-groundsdk/out/olympe-linux/build/libarsdkctrl/obj/libarsdkctrl/src/net/arsdk_discovery_net.c.o
 .debug_aranges
                0x0000000000001bc0       0xb0 /home/zxli/code/parrot-groundsdk/out/olympe-linux/build/libarsdkctrl/obj/libarsdkctrl/src/mux/arsdkctrl_backend_mux.c.o
 .debug_aranges
                0x0000000000001c70       0x90 /home/zxli/code/parrot-groundsdk/out/olympe-linux/build/libarsdkctrl/obj/libarsdkctrl/src/mux/arsdk_discovery_mux.c.o
 .debug_aranges
                0x0000000000001d00      0x1c0 /home/zxli/code/parrot-groundsdk/out/olympe-linux/build/libarsdkctrl/obj/libarsdkctrl/src/ftp/arsdk_ftp.c.o
 .debug_aranges
                0x0000000000001ec0       0xe0 /home/zxli/code/parrot-groundsdk/out/olympe-linux/build/libarsdkctrl/obj/libarsdkctrl/src/ftp/arsdk_ftp_conn.c.o
 .debug_aranges
                0x0000000000001fa0      0x160 /home/zxli/code/parrot-groundsdk/out/olympe-linux/build/libarsdkctrl/obj/libarsdkctrl/src/ftp/arsdk_ftp_seq.c.o
 .debug_aranges
                0x0000000000002100       0x40 /home/zxli/code/parrot-groundsdk/out/olympe-linux/build/libarsdkctrl/obj/libarsdkctrl/src/ftp/arsdk_ftp_cmd.c.o

.debug_pubnames
 *(.debug_pubnames)

.debug_info     0x0000000000000000    0x94e6d
 *(.debug_info .gnu.linkonce.wi.*)
 .debug_info    0x0000000000000000     0x2c83 /home/zxli/code/parrot-groundsdk/out/olympe-linux/build/libarsdkctrl/obj/libarsdkctrl/src/arsdkctrl_log.c.o
 .debug_info    0x0000000000002c83     0x4880 /home/zxli/code/parrot-groundsdk/out/olympe-linux/build/libarsdkctrl/obj/libarsdkctrl/src/arsdk_discovery.c.o
 .debug_info    0x0000000000007503     0x5357 /home/zxli/code/parrot-groundsdk/out/olympe-linux/build/libarsdkctrl/obj/libarsdkctrl/src/arsdk_ctrl.c.o
 .debug_info    0x000000000000c85a     0x4029 /home/zxli/code/parrot-groundsdk/out/olympe-linux/build/libarsdkctrl/obj/libarsdkctrl/src/arsdkctrl_backend.c.o
 .debug_info    0x0000000000010883     0x8911 /home/zxli/code/parrot-groundsdk/out/olympe-linux/build/libarsdkctrl/obj/libarsdkctrl/src/arsdk_media_itf.c.o
 .debug_info    0x0000000000019194     0x42c5 /home/zxli/code/parrot-groundsdk/out/olympe-linux/build/libarsdkctrl/obj/libarsdkctrl/src/arsdk_updater_itf.c.o
 .debug_info    0x000000000001d459     0x400c /home/zxli/code/parrot-groundsdk/out/olympe-linux/build/libarsdkctrl/obj/libarsdkctrl/src/arsdk_blackbox_itf.c.o
 .debug_info    0x0000000000021465     0x7637 /home/zxli/code/parrot-groundsdk/out/olympe-linux/build/libarsdkctrl/obj/libarsdkctrl/src/arsdk_crashml_itf.c.o
 .debug_info    0x0000000000028a9c     0x6461 /home/zxli/code/parrot-groundsdk/out/olympe-linux/build/libarsdkctrl/obj/libarsdkctrl/src/arsdk_flight_log_itf.c.o
 .debug_info    0x000000000002eefd     0x6103 /home/zxli/code/parrot-groundsdk/out/olympe-linux/build/libarsdkctrl/obj/libarsdkctrl/src/arsdk_pud_itf.c.o
 .debug_info    0x0000000000035000     0x50cb /home/zxli/code/parrot-groundsdk/out/olympe-linux/build/libarsdkctrl/obj/libarsdkctrl/src/arsdk_ephemeris_itf.c.o
 .debug_info    0x000000000003a0cb     0x34e8 /home/zxli/code/parrot-groundsdk/out/olympe-linux/build/libarsdkctrl/obj/libarsdkctrl/src/arsdk_md5.c.o
 .debug_info    0x000000000003d5b3     0x3820 /home/zxli/code/parrot-groundsdk/out/olympe-linux/build/libarsdkctrl/obj/libarsdkctrl/src/updater/arsdk_updater_transport.c.o
 .debug_info    0x0000000000040dd3     0x5132 /home/zxli/code/parrot-groundsdk/out/olympe-linux/build/libarsdkctrl/obj/libarsdkctrl/src/updater/arsdk_updater_transport_ftp.c.o
 .debug_info    0x0000000000045f05     0x57aa /home/zxli/code/parrot-groundsdk/out/olympe-linux/build/libarsdkctrl/obj/libarsdkctrl/src/updater/arsdk_updater_transport_mux.c.o
 .debug_info    0x000000000004b6af     0xad97 /home/zxli/code/parrot-groundsdk/out/olympe-linux/build/libarsdkctrl/obj/libarsdkctrl/src/arsdk_ftp_itf.c.o
 .debug_info    0x0000000000056446     0x76a1 /home/zxli/code/parrot-groundsdk/out/olympe-linux/build/libarsdkctrl/obj/libarsdkctrl/src/arsdk_device.c.o
 .debug_info    0x000000000005dae7     0x6971 /home/zxli/code/parrot-groundsdk/out/olympe-linux/build/libarsdkctrl/obj/libarsdkctrl/src/net/arsdkctrl_backend_net.c.o
 .debug_info    0x0000000000064458     0x3e00 /home/zxli/code/parrot-groundsdk/out/olympe-linux/build/libarsdkctrl/obj/libarsdkctrl/src/net/arsdk_avahi_loop.c.o
 .debug_info    0x0000000000068258     0x5f01 /home/zxli/code/parrot-groundsdk/out/olympe-linux/build/libarsdkctrl/obj/libarsdkctrl/src/net/arsdk_discovery_avahi.c.o
 .debug_info    0x000000000006e159     0x53a4 /home/zxli/code/parrot-groundsdk/out/olympe-linux/build/libarsdkctrl/obj/libarsdkctrl/src/net/arsdk_discovery_net.c.o
 .debug_info    0x00000000000734fd     0x5e50 /home/zxli/code/parrot-groundsdk/out/olympe-linux/build/libarsdkctrl/obj/libarsdkctrl/src/mux/arsdkctrl_backend_mux.c.o
 .debug_info    0x000000000007934d     0x4e89 /home/zxli/code/parrot-groundsdk/out/olympe-linux/build/libarsdkctrl/obj/libarsdkctrl/src/mux/arsdk_discovery_mux.c.o
 .debug_info    0x000000000007e1d6     0x7c4f /home/zxli/code/parrot-groundsdk/out/olympe-linux/build/libarsdkctrl/obj/libarsdkctrl/src/ftp/arsdk_ftp.c.o
 .debug_info    0x0000000000085e25     0x5264 /home/zxli/code/parrot-groundsdk/out/olympe-linux/build/libarsdkctrl/obj/libarsdkctrl/src/ftp/arsdk_ftp_conn.c.o
 .debug_info    0x000000000008b089     0x6703 /home/zxli/code/parrot-groundsdk/out/olympe-linux/build/libarsdkctrl/obj/libarsdkctrl/src/ftp/arsdk_ftp_seq.c.o
 .debug_info    0x000000000009178c     0x36e1 /home/zxli/code/parrot-groundsdk/out/olympe-linux/build/libarsdkctrl/obj/libarsdkctrl/src/ftp/arsdk_ftp_cmd.c.o

.debug_abbrev   0x0000000000000000     0x77d3
 *(.debug_abbrev)
 .debug_abbrev  0x0000000000000000      0x103 /home/zxli/code/parrot-groundsdk/out/olympe-linux/build/libarsdkctrl/obj/libarsdkctrl/src/arsdkctrl_log.c.o
 .debug_abbrev  0x0000000000000103      0x37e /home/zxli/code/parrot-groundsdk/out/olympe-linux/build/libarsdkctrl/obj/libarsdkctrl/src/arsdk_discovery.c.o
 .debug_abbrev  0x0000000000000481      0x3f2 /home/zxli/code/parrot-groundsdk/out/olympe-linux/build/libarsdkctrl/obj/libarsdkctrl/src/arsdk_ctrl.c.o
 .debug_abbrev  0x0000000000000873      0x26c /home/zxli/code/parrot-groundsdk/out/olympe-linux/build/libarsdkctrl/obj/libarsdkctrl/src/arsdkctrl_backend.c.o
 .debug_abbrev  0x0000000000000adf      0x61a /home/zxli/code/parrot-groundsdk/out/olympe-linux/build/libarsdkctrl/obj/libarsdkctrl/src/arsdk_media_itf.c.o
 .debug_abbrev  0x00000000000010f9      0x420 /home/zxli/code/parrot-groundsdk/out/olympe-linux/build/libarsdkctrl/obj/libarsdkctrl/src/arsdk_updater_itf.c.o
 .debug_abbrev  0x0000000000001519      0x374 /home/zxli/code/parrot-groundsdk/out/olympe-linux/build/libarsdkctrl/obj/libarsdkctrl/src/arsdk_blackbox_itf.c.o
 .debug_abbrev  0x000000000000188d      0x587 /home/zxli/code/parrot-groundsdk/out/olympe-linux/build/libarsdkctrl/obj/libarsdkctrl/src/arsdk_crashml_itf.c.o
 .debug_abbrev  0x0000000000001e14      0x57f /home/zxli/code/parrot-groundsdk/out/olympe-linux/build/libarsdkctrl/obj/libarsdkctrl/src/arsdk_flight_log_itf.c.o
 .debug_abbrev  0x0000000000002393      0x55a /home/zxli/code/parrot-groundsdk/out/olympe-linux/build/libarsdkctrl/obj/libarsdkctrl/src/arsdk_pud_itf.c.o
 .debug_abbrev  0x00000000000028ed      0x527 /home/zxli/code/parrot-groundsdk/out/olympe-linux/build/libarsdkctrl/obj/libarsdkctrl/src/arsdk_ephemeris_itf.c.o
 .debug_abbrev  0x0000000000002e14      0x335 /home/zxli/code/parrot-groundsdk/out/olympe-linux/build/libarsdkctrl/obj/libarsdkctrl/src/arsdk_md5.c.o
 .debug_abbrev  0x0000000000003149      0x290 /home/zxli/code/parrot-groundsdk/out/olympe-linux/build/libarsdkctrl/obj/libarsdkctrl/src/updater/arsdk_updater_transport.c.o
 .debug_abbrev  0x00000000000033d9      0x545 /home/zxli/code/parrot-groundsdk/out/olympe-linux/build/libarsdkctrl/obj/libarsdkctrl/src/updater/arsdk_updater_transport_ftp.c.o
 .debug_abbrev  0x000000000000391e      0x54f /home/zxli/code/parrot-groundsdk/out/olympe-linux/build/libarsdkctrl/obj/libarsdkctrl/src/updater/arsdk_updater_transport_mux.c.o
 .debug_abbrev  0x0000000000003e6d      0x62a /home/zxli/code/parrot-groundsdk/out/olympe-linux/build/libarsdkctrl/obj/libarsdkctrl/src/arsdk_ftp_itf.c.o
 .debug_abbrev  0x0000000000004497      0x568 /home/zxli/code/parrot-groundsdk/out/olympe-linux/build/libarsdkctrl/obj/libarsdkctrl/src/arsdk_device.c.o
 .debug_abbrev  0x00000000000049ff      0x50d /home/zxli/code/parrot-groundsdk/out/olympe-linux/build/libarsdkctrl/obj/libarsdkctrl/src/net/arsdkctrl_backend_net.c.o
 .debug_abbrev  0x0000000000004f0c      0x3b3 /home/zxli/code/parrot-groundsdk/out/olympe-linux/build/libarsdkctrl/obj/libarsdkctrl/src/net/arsdk_avahi_loop.c.o
 .debug_abbrev  0x00000000000052bf      0x52a /home/zxli/code/parrot-groundsdk/out/olympe-linux/build/libarsdkctrl/obj/libarsdkctrl/src/net/arsdk_discovery_avahi.c.o
 .debug_abbrev  0x00000000000057e9      0x46f /home/zxli/code/parrot-groundsdk/out/olympe-linux/build/libarsdkctrl/obj/libarsdkctrl/src/net/arsdk_discovery_net.c.o
 .debug_abbrev  0x0000000000005c58      0x4c4 /home/zxli/code/parrot-groundsdk/out/olympe-linux/build/libarsdkctrl/obj/libarsdkctrl/src/mux/arsdkctrl_backend_mux.c.o
 .debug_abbrev  0x000000000000611c      0x462 /home/zxli/code/parrot-groundsdk/out/olympe-linux/build/libarsdkctrl/obj/libarsdkctrl/src/mux/arsdk_discovery_mux.c.o
 .debug_abbrev  0x000000000000657e      0x587 /home/zxli/code/parrot-groundsdk/out/olympe-linux/build/libarsdkctrl/obj/libarsdkctrl/src/ftp/arsdk_ftp.c.o
 .debug_abbrev  0x0000000000006b05      0x4a5 /home/zxli/code/parrot-groundsdk/out/olympe-linux/build/libarsdkctrl/obj/libarsdkctrl/src/ftp/arsdk_ftp_conn.c.o
 .debug_abbrev  0x0000000000006faa      0x543 /home/zxli/code/parrot-groundsdk/out/olympe-linux/build/libarsdkctrl/obj/libarsdkctrl/src/ftp/arsdk_ftp_seq.c.o
 .debug_abbrev  0x00000000000074ed      0x2e6 /home/zxli/code/parrot-groundsdk/out/olympe-linux/build/libarsdkctrl/obj/libarsdkctrl/src/ftp/arsdk_ftp_cmd.c.o

.debug_line     0x0000000000000000    0x120b2
 *(.debug_line .debug_line.* .debug_line_end)
 .debug_line    0x0000000000000000      0x21b /home/zxli/code/parrot-groundsdk/out/olympe-linux/build/libarsdkctrl/obj/libarsdkctrl/src/arsdkctrl_log.c.o
 .debug_line    0x000000000000021b      0x818 /home/zxli/code/parrot-groundsdk/out/olympe-linux/build/libarsdkctrl/obj/libarsdkctrl/src/arsdk_discovery.c.o
 .debug_line    0x0000000000000a33      0x9fb /home/zxli/code/parrot-groundsdk/out/olympe-linux/build/libarsdkctrl/obj/libarsdkctrl/src/arsdk_ctrl.c.o
 .debug_line    0x000000000000142e      0x5f9 /home/zxli/code/parrot-groundsdk/out/olympe-linux/build/libarsdkctrl/obj/libarsdkctrl/src/arsdkctrl_backend.c.o
 .debug_line    0x0000000000001a27     0x1462 /home/zxli/code/parrot-groundsdk/out/olympe-linux/build/libarsdkctrl/obj/libarsdkctrl/src/arsdk_media_itf.c.o
 .debug_line    0x0000000000002e89      0x79f /home/zxli/code/parrot-groundsdk/out/olympe-linux/build/libarsdkctrl/obj/libarsdkctrl/src/arsdk_updater_itf.c.o
 .debug_line    0x0000000000003628      0x575 /home/zxli/code/parrot-groundsdk/out/olympe-linux/build/libarsdkctrl/obj/libarsdkctrl/src/arsdk_blackbox_itf.c.o
 .debug_line    0x0000000000003b9d     0x101a /home/zxli/code/parrot-groundsdk/out/olympe-linux/build/libarsdkctrl/obj/libarsdkctrl/src/arsdk_crashml_itf.c.o
 .debug_line    0x0000000000004bb7      0xc0a /home/zxli/code/parrot-groundsdk/out/olympe-linux/build/libarsdkctrl/obj/libarsdkctrl/src/arsdk_flight_log_itf.c.o
 .debug_line    0x00000000000057c1      0xbd6 /home/zxli/code/parrot-groundsdk/out/olympe-linux/build/libarsdkctrl/obj/libarsdkctrl/src/arsdk_pud_itf.c.o
 .debug_line    0x0000000000006397      0x8b0 /home/zxli/code/parrot-groundsdk/out/olympe-linux/build/libarsdkctrl/obj/libarsdkctrl/src/arsdk_ephemeris_itf.c.o
 .debug_line    0x0000000000006c47      0x89f /home/zxli/code/parrot-groundsdk/out/olympe-linux/build/libarsdkctrl/obj/libarsdkctrl/src/arsdk_md5.c.o
 .debug_line    0x00000000000074e6      0x52c /home/zxli/code/parrot-groundsdk/out/olympe-linux/build/libarsdkctrl/obj/libarsdkctrl/src/updater/arsdk_updater_transport.c.o
 .debug_line    0x0000000000007a12      0x9dc /home/zxli/code/parrot-groundsdk/out/olympe-linux/build/libarsdkctrl/obj/libarsdkctrl/src/updater/arsdk_updater_transport_ftp.c.o
 .debug_line    0x00000000000083ee      0xa4f /home/zxli/code/parrot-groundsdk/out/olympe-linux/build/libarsdkctrl/obj/libarsdkctrl/src/updater/arsdk_updater_transport_mux.c.o
 .debug_line    0x0000000000008e3d     0x1d76 /home/zxli/code/parrot-groundsdk/out/olympe-linux/build/libarsdkctrl/obj/libarsdkctrl/src/arsdk_ftp_itf.c.o
 .debug_line    0x000000000000abb3     0x1393 /home/zxli/code/parrot-groundsdk/out/olympe-linux/build/libarsdkctrl/obj/libarsdkctrl/src/arsdk_device.c.o
 .debug_line    0x000000000000bf46      0xd90 /home/zxli/code/parrot-groundsdk/out/olympe-linux/build/libarsdkctrl/obj/libarsdkctrl/src/net/arsdkctrl_backend_net.c.o
 .debug_line    0x000000000000ccd6      0x5c6 /home/zxli/code/parrot-groundsdk/out/olympe-linux/build/libarsdkctrl/obj/libarsdkctrl/src/net/arsdk_avahi_loop.c.o
 .debug_line    0x000000000000d29c      0xae7 /home/zxli/code/parrot-groundsdk/out/olympe-linux/build/libarsdkctrl/obj/libarsdkctrl/src/net/arsdk_discovery_avahi.c.o
 .debug_line    0x000000000000dd83      0x9a4 /home/zxli/code/parrot-groundsdk/out/olympe-linux/build/libarsdkctrl/obj/libarsdkctrl/src/net/arsdk_discovery_net.c.o
 .debug_line    0x000000000000e727      0xb5d /home/zxli/code/parrot-groundsdk/out/olympe-linux/build/libarsdkctrl/obj/libarsdkctrl/src/mux/arsdkctrl_backend_mux.c.o
 .debug_line    0x000000000000f284      0x87e /home/zxli/code/parrot-groundsdk/out/olympe-linux/build/libarsdkctrl/obj/libarsdkctrl/src/mux/arsdk_discovery_mux.c.o
 .debug_line    0x000000000000fb02      0xf50 /home/zxli/code/parrot-groundsdk/out/olympe-linux/build/libarsdkctrl/obj/libarsdkctrl/src/ftp/arsdk_ftp.c.o
 .debug_line    0x0000000000010a52      0x823 /home/zxli/code/parrot-groundsdk/out/olympe-linux/build/libarsdkctrl/obj/libarsdkctrl/src/ftp/arsdk_ftp_conn.c.o
 .debug_line    0x0000000000011275      0xa4b /home/zxli/code/parrot-groundsdk/out/olympe-linux/build/libarsdkctrl/obj/libarsdkctrl/src/ftp/arsdk_ftp_seq.c.o
 .debug_line    0x0000000000011cc0      0x3f2 /home/zxli/code/parrot-groundsdk/out/olympe-linux/build/libarsdkctrl/obj/libarsdkctrl/src/ftp/arsdk_ftp_cmd.c.o

.debug_frame
 *(.debug_frame)

.debug_str      0x0000000000000000    0x127c9
 *(.debug_str)
 .debug_str     0x0000000000000000     0xac2b /home/zxli/code/parrot-groundsdk/out/olympe-linux/build/libarsdkctrl/obj/libarsdkctrl/src/arsdkctrl_log.c.o
                                       0xad24 (size before relaxing)
 .debug_str     0x000000000000ac2b      0xc02 /home/zxli/code/parrot-groundsdk/out/olympe-linux/build/libarsdkctrl/obj/libarsdkctrl/src/arsdk_discovery.c.o
                                       0xba79 (size before relaxing)
 .debug_str     0x000000000000b82d      0x28c /home/zxli/code/parrot-groundsdk/out/olympe-linux/build/libarsdkctrl/obj/libarsdkctrl/src/arsdk_ctrl.c.o
                                       0xbb61 (size before relaxing)
 .debug_str     0x000000000000bab9      0x166 /home/zxli/code/parrot-groundsdk/out/olympe-linux/build/libarsdkctrl/obj/libarsdkctrl/src/arsdkctrl_backend.c.o
                                       0xb964 (size before relaxing)
 .debug_str     0x000000000000bc1f      0xf99 /home/zxli/code/parrot-groundsdk/out/olympe-linux/build/libarsdkctrl/obj/libarsdkctrl/src/arsdk_media_itf.c.o
                                       0xc1bc (size before relaxing)
 .debug_str     0x000000000000cbb8      0x662 /home/zxli/code/parrot-groundsdk/out/olympe-linux/build/libarsdkctrl/obj/libarsdkctrl/src/arsdk_updater_itf.c.o
                                       0xb8de (size before relaxing)
 .debug_str     0x000000000000d21a      0x290 /home/zxli/code/parrot-groundsdk/out/olympe-linux/build/libarsdkctrl/obj/libarsdkctrl/src/arsdk_blackbox_itf.c.o
                                       0xb0c4 (size before relaxing)
 .debug_str     0x000000000000d4aa      0x71b /home/zxli/code/parrot-groundsdk/out/olympe-linux/build/libarsdkctrl/obj/libarsdkctrl/src/arsdk_crashml_itf.c.o
                                       0xbddb (size before relaxing)
 .debug_str     0x000000000000dbc5      0x2ce /home/zxli/code/parrot-groundsdk/out/olympe-linux/build/libarsdkctrl/obj/libarsdkctrl/src/arsdk_flight_log_itf.c.o
                                       0xbc2b (size before relaxing)
 .debug_str     0x000000000000de93      0x221 /home/zxli/code/parrot-groundsdk/out/olympe-linux/build/libarsdkctrl/obj/libarsdkctrl/src/arsdk_pud_itf.c.o
                                       0xba5b (size before relaxing)
 .debug_str     0x000000000000e0b4      0x440 /home/zxli/code/parrot-groundsdk/out/olympe-linux/build/libarsdkctrl/obj/libarsdkctrl/src/arsdk_ephemeris_itf.c.o
                                       0xb97c (size before relaxing)
 .debug_str     0x000000000000e4f4       0xf4 /home/zxli/code/parrot-groundsdk/out/olympe-linux/build/libarsdkctrl/obj/libarsdkctrl/src/arsdk_md5.c.o
                                       0xaeda (size before relaxing)
 .debug_str     0x000000000000e5e8      0x142 /home/zxli/code/parrot-groundsdk/out/olympe-linux/build/libarsdkctrl/obj/libarsdkctrl/src/updater/arsdk_updater_transport.c.o
                                       0xb323 (size before relaxing)
 .debug_str     0x000000000000e72a      0x32d /home/zxli/code/parrot-groundsdk/out/olympe-linux/build/libarsdkctrl/obj/libarsdkctrl/src/updater/arsdk_updater_transport_ftp.c.o
                                       0xbb01 (size before relaxing)
 .debug_str     0x000000000000ea57      0x29a /home/zxli/code/parrot-groundsdk/out/olympe-linux/build/libarsdkctrl/obj/libarsdkctrl/src/updater/arsdk_updater_transport_mux.c.o
                                       0xb9c4 (size before relaxing)
 .debug_str     0x000000000000ecf1      0xc62 /home/zxli/code/parrot-groundsdk/out/olympe-linux/build/libarsdkctrl/obj/libarsdkctrl/src/arsdk_ftp_itf.c.o
                                       0xc928 (size before relaxing)
 .debug_str     0x000000000000f953      0x5ec /home/zxli/code/parrot-groundsdk/out/olympe-linux/build/libarsdkctrl/obj/libarsdkctrl/src/arsdk_device.c.o
                                       0xc45c (size before relaxing)
 .debug_str     0x000000000000ff3f      0x7ae /home/zxli/code/parrot-groundsdk/out/olympe-linux/build/libarsdkctrl/obj/libarsdkctrl/src/net/arsdkctrl_backend_net.c.o
                                       0xc2a0 (size before relaxing)
 .debug_str     0x00000000000106ed      0x2f9 /home/zxli/code/parrot-groundsdk/out/olympe-linux/build/libarsdkctrl/obj/libarsdkctrl/src/net/arsdk_avahi_loop.c.o
                                       0xb15b (size before relaxing)
 .debug_str     0x00000000000109e6      0x6cf /home/zxli/code/parrot-groundsdk/out/olympe-linux/build/libarsdkctrl/obj/libarsdkctrl/src/net/arsdk_discovery_avahi.c.o
                                       0xc2f2 (size before relaxing)
 .debug_str     0x00000000000110b5      0x12e /home/zxli/code/parrot-groundsdk/out/olympe-linux/build/libarsdkctrl/obj/libarsdkctrl/src/net/arsdk_discovery_net.c.o
                                       0xbe32 (size before relaxing)
 .debug_str     0x00000000000111e3      0x297 /home/zxli/code/parrot-groundsdk/out/olympe-linux/build/libarsdkctrl/obj/libarsdkctrl/src/mux/arsdkctrl_backend_mux.c.o
                                       0xbeb8 (size before relaxing)
 .debug_str     0x000000000001147a      0x169 /home/zxli/code/parrot-groundsdk/out/olympe-linux/build/libarsdkctrl/obj/libarsdkctrl/src/mux/arsdk_discovery_mux.c.o
                                       0xbc27 (size before relaxing)
 .debug_str     0x00000000000115e3      0x895 /home/zxli/code/parrot-groundsdk/out/olympe-linux/build/libarsdkctrl/obj/libarsdkctrl/src/ftp/arsdk_ftp.c.o
                                       0xbc29 (size before relaxing)
 .debug_str     0x0000000000011e78      0x3b2 /home/zxli/code/parrot-groundsdk/out/olympe-linux/build/libarsdkctrl/obj/libarsdkctrl/src/ftp/arsdk_ftp_conn.c.o
                                       0xb7e7 (size before relaxing)
 .debug_str     0x000000000001222a      0x525 /home/zxli/code/parrot-groundsdk/out/olympe-linux/build/libarsdkctrl/obj/libarsdkctrl/src/ftp/arsdk_ftp_seq.c.o
                                       0xbd20 (size before relaxing)
 .debug_str     0x000000000001274f       0x7a /home/zxli/code/parrot-groundsdk/out/olympe-linux/build/libarsdkctrl/obj/libarsdkctrl/src/ftp/arsdk_ftp_cmd.c.o
                                       0xb22e (size before relaxing)

.debug_loc      0x0000000000000000    0x6da1c
 *(.debug_loc)
 .debug_loc     0x0000000000000000     0x1c2d /home/zxli/code/parrot-groundsdk/out/olympe-linux/build/libarsdkctrl/obj/libarsdkctrl/src/arsdk_discovery.c.o
 .debug_loc     0x0000000000001c2d     0x3036 /home/zxli/code/parrot-groundsdk/out/olympe-linux/build/libarsdkctrl/obj/libarsdkctrl/src/arsdk_ctrl.c.o
 .debug_loc     0x0000000000004c63     0x15e6 /home/zxli/code/parrot-groundsdk/out/olympe-linux/build/libarsdkctrl/obj/libarsdkctrl/src/arsdkctrl_backend.c.o
 .debug_loc     0x0000000000006249     0x909b /home/zxli/code/parrot-groundsdk/out/olympe-linux/build/libarsdkctrl/obj/libarsdkctrl/src/arsdk_media_itf.c.o
 .debug_loc     0x000000000000f2e4     0x2369 /home/zxli/code/parrot-groundsdk/out/olympe-linux/build/libarsdkctrl/obj/libarsdkctrl/src/arsdk_updater_itf.c.o
 .debug_loc     0x000000000001164d     0x1e6d /home/zxli/code/parrot-groundsdk/out/olympe-linux/build/libarsdkctrl/obj/libarsdkctrl/src/arsdk_blackbox_itf.c.o
 .debug_loc     0x00000000000134ba     0x81fe /home/zxli/code/parrot-groundsdk/out/olympe-linux/build/libarsdkctrl/obj/libarsdkctrl/src/arsdk_crashml_itf.c.o
 .debug_loc     0x000000000001b6b8     0x5289 /home/zxli/code/parrot-groundsdk/out/olympe-linux/build/libarsdkctrl/obj/libarsdkctrl/src/arsdk_flight_log_itf.c.o
 .debug_loc     0x0000000000020941     0x51dc /home/zxli/code/parrot-groundsdk/out/olympe-linux/build/libarsdkctrl/obj/libarsdkctrl/src/arsdk_pud_itf.c.o
 .debug_loc     0x0000000000025b1d     0x3559 /home/zxli/code/parrot-groundsdk/out/olympe-linux/build/libarsdkctrl/obj/libarsdkctrl/src/arsdk_ephemeris_itf.c.o
 .debug_loc     0x0000000000029076     0x185a /home/zxli/code/parrot-groundsdk/out/olympe-linux/build/libarsdkctrl/obj/libarsdkctrl/src/arsdk_md5.c.o
 .debug_loc     0x000000000002a8d0     0x1507 /home/zxli/code/parrot-groundsdk/out/olympe-linux/build/libarsdkctrl/obj/libarsdkctrl/src/updater/arsdk_updater_transport.c.o
 .debug_loc     0x000000000002bdd7     0x34a5 /home/zxli/code/parrot-groundsdk/out/olympe-linux/build/libarsdkctrl/obj/libarsdkctrl/src/updater/arsdk_updater_transport_ftp.c.o
 .debug_loc     0x000000000002f27c     0x369b /home/zxli/code/parrot-groundsdk/out/olympe-linux/build/libarsdkctrl/obj/libarsdkctrl/src/updater/arsdk_updater_transport_mux.c.o
 .debug_loc     0x0000000000032917     0xf15e /home/zxli/code/parrot-groundsdk/out/olympe-linux/build/libarsdkctrl/obj/libarsdkctrl/src/arsdk_ftp_itf.c.o
 .debug_loc     0x0000000000041a75     0x7c11 /home/zxli/code/parrot-groundsdk/out/olympe-linux/build/libarsdkctrl/obj/libarsdkctrl/src/arsdk_device.c.o
 .debug_loc     0x0000000000049686     0x451b /home/zxli/code/parrot-groundsdk/out/olympe-linux/build/libarsdkctrl/obj/libarsdkctrl/src/net/arsdkctrl_backend_net.c.o
 .debug_loc     0x000000000004dba1     0x14f4 /home/zxli/code/parrot-groundsdk/out/olympe-linux/build/libarsdkctrl/obj/libarsdkctrl/src/net/arsdk_avahi_loop.c.o
 .debug_loc     0x000000000004f095     0x32f4 /home/zxli/code/parrot-groundsdk/out/olympe-linux/build/libarsdkctrl/obj/libarsdkctrl/src/net/arsdk_discovery_avahi.c.o
 .debug_loc     0x0000000000052389     0x2e5b /home/zxli/code/parrot-groundsdk/out/olympe-linux/build/libarsdkctrl/obj/libarsdkctrl/src/net/arsdk_discovery_net.c.o
 .debug_loc     0x00000000000551e4     0x3a9b /home/zxli/code/parrot-groundsdk/out/olympe-linux/build/libarsdkctrl/obj/libarsdkctrl/src/mux/arsdkctrl_backend_mux.c.o
 .debug_loc     0x0000000000058c7f     0x2876 /home/zxli/code/parrot-groundsdk/out/olympe-linux/build/libarsdkctrl/obj/libarsdkctrl/src/mux/arsdk_discovery_mux.c.o
 .debug_loc     0x000000000005b4f5     0x884d /home/zxli/code/parrot-groundsdk/out/olympe-linux/build/libarsdkctrl/obj/libarsdkctrl/src/ftp/arsdk_ftp.c.o
 .debug_loc     0x0000000000063d42     0x40d5 /home/zxli/code/parrot-groundsdk/out/olympe-linux/build/libarsdkctrl/obj/libarsdkctrl/src/ftp/arsdk_ftp_conn.c.o
 .debug_loc     0x0000000000067e17     0x4e22 /home/zxli/code/parrot-groundsdk/out/olympe-linux/build/libarsdkctrl/obj/libarsdkctrl/src/ftp/arsdk_ftp_seq.c.o
 .debug_loc     0x000000000006cc39      0xde3 /home/zxli/code/parrot-groundsdk/out/olympe-linux/build/libarsdkctrl/obj/libarsdkctrl/src/ftp/arsdk_ftp_cmd.c.o

.debug_macinfo
 *(.debug_macinfo)

.debug_weaknames
 *(.debug_weaknames)

.debug_funcnames
 *(.debug_funcnames)

.debug_typenames
 *(.debug_typenames)

.debug_varnames
 *(.debug_varnames)

.debug_pubtypes
 *(.debug_pubtypes)

.debug_ranges   0x0000000000000000    0x11bf0
 *(.debug_ranges)
 .debug_ranges  0x0000000000000000      0x650 /home/zxli/code/parrot-groundsdk/out/olympe-linux/build/libarsdkctrl/obj/libarsdkctrl/src/arsdk_discovery.c.o
 .debug_ranges  0x0000000000000650      0x8b0 /home/zxli/code/parrot-groundsdk/out/olympe-linux/build/libarsdkctrl/obj/libarsdkctrl/src/arsdk_ctrl.c.o
 .debug_ranges  0x0000000000000f00      0x2c0 /home/zxli/code/parrot-groundsdk/out/olympe-linux/build/libarsdkctrl/obj/libarsdkctrl/src/arsdkctrl_backend.c.o
 .debug_ranges  0x00000000000011c0     0x1df0 /home/zxli/code/parrot-groundsdk/out/olympe-linux/build/libarsdkctrl/obj/libarsdkctrl/src/arsdk_media_itf.c.o
 .debug_ranges  0x0000000000002fb0      0x510 /home/zxli/code/parrot-groundsdk/out/olympe-linux/build/libarsdkctrl/obj/libarsdkctrl/src/arsdk_updater_itf.c.o
 .debug_ranges  0x00000000000034c0      0x560 /home/zxli/code/parrot-groundsdk/out/olympe-linux/build/libarsdkctrl/obj/libarsdkctrl/src/arsdk_blackbox_itf.c.o
 .debug_ranges  0x0000000000003a20     0x1320 /home/zxli/code/parrot-groundsdk/out/olympe-linux/build/libarsdkctrl/obj/libarsdkctrl/src/arsdk_crashml_itf.c.o
 .debug_ranges  0x0000000000004d40      0xec0 /home/zxli/code/parrot-groundsdk/out/olympe-linux/build/libarsdkctrl/obj/libarsdkctrl/src/arsdk_flight_log_itf.c.o
 .debug_ranges  0x0000000000005c00      0xe20 /home/zxli/code/parrot-groundsdk/out/olympe-linux/build/libarsdkctrl/obj/libarsdkctrl/src/arsdk_pud_itf.c.o
 .debug_ranges  0x0000000000006a20      0x7a0 /home/zxli/code/parrot-groundsdk/out/olympe-linux/build/libarsdkctrl/obj/libarsdkctrl/src/arsdk_ephemeris_itf.c.o
 .debug_ranges  0x00000000000071c0      0x230 /home/zxli/code/parrot-groundsdk/out/olympe-linux/build/libarsdkctrl/obj/libarsdkctrl/src/arsdk_md5.c.o
 .debug_ranges  0x00000000000073f0      0x390 /home/zxli/code/parrot-groundsdk/out/olympe-linux/build/libarsdkctrl/obj/libarsdkctrl/src/updater/arsdk_updater_transport.c.o
 .debug_ranges  0x0000000000007780      0x7e0 /home/zxli/code/parrot-groundsdk/out/olympe-linux/build/libarsdkctrl/obj/libarsdkctrl/src/updater/arsdk_updater_transport_ftp.c.o
 .debug_ranges  0x0000000000007f60      0xb80 /home/zxli/code/parrot-groundsdk/out/olympe-linux/build/libarsdkctrl/obj/libarsdkctrl/src/updater/arsdk_updater_transport_mux.c.o
 .debug_ranges  0x0000000000008ae0     0x1f40 /home/zxli/code/parrot-groundsdk/out/olympe-linux/build/libarsdkctrl/obj/libarsdkctrl/src/arsdk_ftp_itf.c.o
 .debug_ranges  0x000000000000aa20     0x1100 /home/zxli/code/parrot-groundsdk/out/olympe-linux/build/libarsdkctrl/obj/libarsdkctrl/src/arsdk_device.c.o
 .debug_ranges  0x000000000000bb20      0xcb0 /home/zxli/code/parrot-groundsdk/out/olympe-linux/build/libarsdkctrl/obj/libarsdkctrl/src/net/arsdkctrl_backend_net.c.o
 .debug_ranges  0x000000000000c7d0      0x310 /home/zxli/code/parrot-groundsdk/out/olympe-linux/build/libarsdkctrl/obj/libarsdkctrl/src/net/arsdk_avahi_loop.c.o
 .debug_ranges  0x000000000000cae0      0x9f0 /home/zxli/code/parrot-groundsdk/out/olympe-linux/build/libarsdkctrl/obj/libarsdkctrl/src/net/arsdk_discovery_avahi.c.o
 .debug_ranges  0x000000000000d4d0      0x680 /home/zxli/code/parrot-groundsdk/out/olympe-linux/build/libarsdkctrl/obj/libarsdkctrl/src/net/arsdk_discovery_net.c.o
 .debug_ranges  0x000000000000db50      0xbc0 /home/zxli/code/parrot-groundsdk/out/olympe-linux/build/libarsdkctrl/obj/libarsdkctrl/src/mux/arsdkctrl_backend_mux.c.o
 .debug_ranges  0x000000000000e710      0x750 /home/zxli/code/parrot-groundsdk/out/olympe-linux/build/libarsdkctrl/obj/libarsdkctrl/src/mux/arsdk_discovery_mux.c.o
 .debug_ranges  0x000000000000ee60     0x1480 /home/zxli/code/parrot-groundsdk/out/olympe-linux/build/libarsdkctrl/obj/libarsdkctrl/src/ftp/arsdk_ftp.c.o
 .debug_ranges  0x00000000000102e0      0xac0 /home/zxli/code/parrot-groundsdk/out/olympe-linux/build/libarsdkctrl/obj/libarsdkctrl/src/ftp/arsdk_ftp_conn.c.o
 .debug_ranges  0x0000000000010da0      0xc00 /home/zxli/code/parrot-groundsdk/out/olympe-linux/build/libarsdkctrl/obj/libarsdkctrl/src/ftp/arsdk_ftp_seq.c.o
 .debug_ranges  0x00000000000119a0      0x250 /home/zxli/code/parrot-groundsdk/out/olympe-linux/build/libarsdkctrl/obj/libarsdkctrl/src/ftp/arsdk_ftp_cmd.c.o

.debug_macro
 *(.debug_macro)

.debug_addr
 *(.debug_addr)

.gnu.attributes
 *(.gnu.attributes)

/DISCARD/
 *(.note.GNU-stack)
 *(.gnu_debuglink)
 *(.gnu.lto_*)
OUTPUT(out/olympe-linux/build/libarsdkctrl/libarsdkctrl.so elf64-x86-64)
