Archive member included to satisfy reference by file (symbol)

/home/zxli/code/parrot-groundsdk/out/olympe-linux/staging/usr/lib/libarsdkgen.a(arsdk_cmd_desc.c.o)
                              (--whole-archive)
/home/zxli/code/parrot-groundsdk/out/olympe-linux/staging/usr/lib/libarsdkgen.a(arsdk_cmd_dec.c.o)
                              (--whole-archive)
/home/zxli/code/parrot-groundsdk/out/olympe-linux/staging/usr/lib/libarsdkgen.a(arsdk_cmd_enc.c.o)
                              (--whole-archive)

As-needed library included to satisfy reference by file (symbol)

libfutils.so                  /home/zxli/code/parrot-groundsdk/out/olympe-linux/build/libarsdk/obj/libarsdk/src/cmd_itf/arsdk_cmd_itf1.c.o (time_get_monotonic)
libulog.so                    /home/zxli/code/parrot-groundsdk/out/olympe-linux/build/libarsdk/obj/libarsdk/src/arsdk_backend.c.o (ulog_log_write)
libmux.so                     /home/zxli/code/parrot-groundsdk/out/olympe-linux/build/libarsdk/obj/libarsdk/src/mux/arsdk_backend_mux.c.o (mux_ref)
libpomp.so                    /home/zxli/code/parrot-groundsdk/out/olympe-linux/build/libarsdk/obj/libarsdk/src/net/arsdk_backend_net.c.o (pomp_conn_get_peer_addr)
libjson-c.so.5                /home/zxli/code/parrot-groundsdk/out/olympe-linux/build/libarsdk/obj/libarsdk/src/net/arsdk_backend_net.c.o (json_object_new_object@@JSONC_0.14)
libpthread.so.0               /home/zxli/code/parrot-groundsdk/out/olympe-linux/build/libarsdk/obj/libarsdk/src/net/arsdk_transport_net.c.o (recvfrom@@GLIBC_2.2.5)
libc.so.6                     /home/zxli/code/parrot-groundsdk/out/olympe-linux/build/libarsdk/obj/libarsdk/src/net/arsdk_transport_net.c.o (socket@@GLIBC_2.2.5)

Discarded input sections

 .text          0x0000000000000000        0x0 /usr/lib/gcc/x86_64-linux-gnu/7/../../../x86_64-linux-gnu/crti.o
 .data          0x0000000000000000        0x0 /usr/lib/gcc/x86_64-linux-gnu/7/../../../x86_64-linux-gnu/crti.o
 .bss           0x0000000000000000        0x0 /usr/lib/gcc/x86_64-linux-gnu/7/../../../x86_64-linux-gnu/crti.o
 .note.GNU-stack
                0x0000000000000000        0x0 /usr/lib/gcc/x86_64-linux-gnu/7/../../../x86_64-linux-gnu/crti.o
 .data          0x0000000000000000        0x0 /usr/lib/gcc/x86_64-linux-gnu/7/crtbeginS.o
 .note.GNU-stack
                0x0000000000000000        0x0 /usr/lib/gcc/x86_64-linux-gnu/7/crtbeginS.o
 .text          0x0000000000000000        0x0 /home/zxli/code/parrot-groundsdk/out/olympe-linux/build/libarsdk/obj/libarsdk/src/arsdk_backend.c.o
 .data          0x0000000000000000        0x0 /home/zxli/code/parrot-groundsdk/out/olympe-linux/build/libarsdk/obj/libarsdk/src/arsdk_backend.c.o
 .bss           0x0000000000000000        0x0 /home/zxli/code/parrot-groundsdk/out/olympe-linux/build/libarsdk/obj/libarsdk/src/arsdk_backend.c.o
 .note.GNU-stack
                0x0000000000000000        0x0 /home/zxli/code/parrot-groundsdk/out/olympe-linux/build/libarsdk/obj/libarsdk/src/arsdk_backend.c.o
 .text          0x0000000000000000        0x0 /home/zxli/code/parrot-groundsdk/out/olympe-linux/build/libarsdk/obj/libarsdk/src/cmd_itf/arsdk_cmd_itf.c.o
 .data          0x0000000000000000        0x0 /home/zxli/code/parrot-groundsdk/out/olympe-linux/build/libarsdk/obj/libarsdk/src/cmd_itf/arsdk_cmd_itf.c.o
 .bss           0x0000000000000000        0x0 /home/zxli/code/parrot-groundsdk/out/olympe-linux/build/libarsdk/obj/libarsdk/src/cmd_itf/arsdk_cmd_itf.c.o
 .note.GNU-stack
                0x0000000000000000        0x0 /home/zxli/code/parrot-groundsdk/out/olympe-linux/build/libarsdk/obj/libarsdk/src/cmd_itf/arsdk_cmd_itf.c.o
 .text          0x0000000000000000        0x0 /home/zxli/code/parrot-groundsdk/out/olympe-linux/build/libarsdk/obj/libarsdk/src/cmd_itf/arsdk_cmd_itf1.c.o
 .data          0x0000000000000000        0x0 /home/zxli/code/parrot-groundsdk/out/olympe-linux/build/libarsdk/obj/libarsdk/src/cmd_itf/arsdk_cmd_itf1.c.o
 .bss           0x0000000000000000        0x0 /home/zxli/code/parrot-groundsdk/out/olympe-linux/build/libarsdk/obj/libarsdk/src/cmd_itf/arsdk_cmd_itf1.c.o
 .note.GNU-stack
                0x0000000000000000        0x0 /home/zxli/code/parrot-groundsdk/out/olympe-linux/build/libarsdk/obj/libarsdk/src/cmd_itf/arsdk_cmd_itf1.c.o
 .text          0x0000000000000000        0x0 /home/zxli/code/parrot-groundsdk/out/olympe-linux/build/libarsdk/obj/libarsdk/src/cmd_itf/arsdk_cmd_itf2.c.o
 .data          0x0000000000000000        0x0 /home/zxli/code/parrot-groundsdk/out/olympe-linux/build/libarsdk/obj/libarsdk/src/cmd_itf/arsdk_cmd_itf2.c.o
 .bss           0x0000000000000000        0x0 /home/zxli/code/parrot-groundsdk/out/olympe-linux/build/libarsdk/obj/libarsdk/src/cmd_itf/arsdk_cmd_itf2.c.o
 .note.GNU-stack
                0x0000000000000000        0x0 /home/zxli/code/parrot-groundsdk/out/olympe-linux/build/libarsdk/obj/libarsdk/src/cmd_itf/arsdk_cmd_itf2.c.o
 .text          0x0000000000000000        0x0 /home/zxli/code/parrot-groundsdk/out/olympe-linux/build/libarsdk/obj/libarsdk/src/cmd_itf/arsdk_cmd_itf3.c.o
 .data          0x0000000000000000        0x0 /home/zxli/code/parrot-groundsdk/out/olympe-linux/build/libarsdk/obj/libarsdk/src/cmd_itf/arsdk_cmd_itf3.c.o
 .bss           0x0000000000000000        0x0 /home/zxli/code/parrot-groundsdk/out/olympe-linux/build/libarsdk/obj/libarsdk/src/cmd_itf/arsdk_cmd_itf3.c.o
 .note.GNU-stack
                0x0000000000000000        0x0 /home/zxli/code/parrot-groundsdk/out/olympe-linux/build/libarsdk/obj/libarsdk/src/cmd_itf/arsdk_cmd_itf3.c.o
 .text          0x0000000000000000        0x0 /home/zxli/code/parrot-groundsdk/out/olympe-linux/build/libarsdk/obj/libarsdk/src/arsdk_decoder.c.o
 .data          0x0000000000000000        0x0 /home/zxli/code/parrot-groundsdk/out/olympe-linux/build/libarsdk/obj/libarsdk/src/arsdk_decoder.c.o
 .bss           0x0000000000000000        0x0 /home/zxli/code/parrot-groundsdk/out/olympe-linux/build/libarsdk/obj/libarsdk/src/arsdk_decoder.c.o
 .note.GNU-stack
                0x0000000000000000        0x0 /home/zxli/code/parrot-groundsdk/out/olympe-linux/build/libarsdk/obj/libarsdk/src/arsdk_decoder.c.o
 .text          0x0000000000000000        0x0 /home/zxli/code/parrot-groundsdk/out/olympe-linux/build/libarsdk/obj/libarsdk/src/arsdk_mngr.c.o
 .data          0x0000000000000000        0x0 /home/zxli/code/parrot-groundsdk/out/olympe-linux/build/libarsdk/obj/libarsdk/src/arsdk_mngr.c.o
 .bss           0x0000000000000000        0x0 /home/zxli/code/parrot-groundsdk/out/olympe-linux/build/libarsdk/obj/libarsdk/src/arsdk_mngr.c.o
 .note.GNU-stack
                0x0000000000000000        0x0 /home/zxli/code/parrot-groundsdk/out/olympe-linux/build/libarsdk/obj/libarsdk/src/arsdk_mngr.c.o
 .text          0x0000000000000000        0x0 /home/zxli/code/parrot-groundsdk/out/olympe-linux/build/libarsdk/obj/libarsdk/src/arsdk_encoder.c.o
 .data          0x0000000000000000        0x0 /home/zxli/code/parrot-groundsdk/out/olympe-linux/build/libarsdk/obj/libarsdk/src/arsdk_encoder.c.o
 .bss           0x0000000000000000        0x0 /home/zxli/code/parrot-groundsdk/out/olympe-linux/build/libarsdk/obj/libarsdk/src/arsdk_encoder.c.o
 .note.GNU-stack
                0x0000000000000000        0x0 /home/zxli/code/parrot-groundsdk/out/olympe-linux/build/libarsdk/obj/libarsdk/src/arsdk_encoder.c.o
 .text          0x0000000000000000        0x0 /home/zxli/code/parrot-groundsdk/out/olympe-linux/build/libarsdk/obj/libarsdk/src/arsdk_log.c.o
 .data          0x0000000000000000        0x0 /home/zxli/code/parrot-groundsdk/out/olympe-linux/build/libarsdk/obj/libarsdk/src/arsdk_log.c.o
 .bss           0x0000000000000000        0x0 /home/zxli/code/parrot-groundsdk/out/olympe-linux/build/libarsdk/obj/libarsdk/src/arsdk_log.c.o
 .note.GNU-stack
                0x0000000000000000        0x0 /home/zxli/code/parrot-groundsdk/out/olympe-linux/build/libarsdk/obj/libarsdk/src/arsdk_log.c.o
 .text          0x0000000000000000        0x0 /home/zxli/code/parrot-groundsdk/out/olympe-linux/build/libarsdk/obj/libarsdk/src/arsdk_peer.c.o
 .data          0x0000000000000000        0x0 /home/zxli/code/parrot-groundsdk/out/olympe-linux/build/libarsdk/obj/libarsdk/src/arsdk_peer.c.o
 .bss           0x0000000000000000        0x0 /home/zxli/code/parrot-groundsdk/out/olympe-linux/build/libarsdk/obj/libarsdk/src/arsdk_peer.c.o
 .note.GNU-stack
                0x0000000000000000        0x0 /home/zxli/code/parrot-groundsdk/out/olympe-linux/build/libarsdk/obj/libarsdk/src/arsdk_peer.c.o
 .text          0x0000000000000000        0x0 /home/zxli/code/parrot-groundsdk/out/olympe-linux/build/libarsdk/obj/libarsdk/src/arsdk_transport.c.o
 .data          0x0000000000000000        0x0 /home/zxli/code/parrot-groundsdk/out/olympe-linux/build/libarsdk/obj/libarsdk/src/arsdk_transport.c.o
 .bss           0x0000000000000000        0x0 /home/zxli/code/parrot-groundsdk/out/olympe-linux/build/libarsdk/obj/libarsdk/src/arsdk_transport.c.o
 .note.GNU-stack
                0x0000000000000000        0x0 /home/zxli/code/parrot-groundsdk/out/olympe-linux/build/libarsdk/obj/libarsdk/src/arsdk_transport.c.o
 .text          0x0000000000000000        0x0 /home/zxli/code/parrot-groundsdk/out/olympe-linux/build/libarsdk/obj/libarsdk/src/net/arsdk_backend_net.c.o
 .data          0x0000000000000000        0x0 /home/zxli/code/parrot-groundsdk/out/olympe-linux/build/libarsdk/obj/libarsdk/src/net/arsdk_backend_net.c.o
 .bss           0x0000000000000000        0x0 /home/zxli/code/parrot-groundsdk/out/olympe-linux/build/libarsdk/obj/libarsdk/src/net/arsdk_backend_net.c.o
 .note.GNU-stack
                0x0000000000000000        0x0 /home/zxli/code/parrot-groundsdk/out/olympe-linux/build/libarsdk/obj/libarsdk/src/net/arsdk_backend_net.c.o
 .text          0x0000000000000000        0x0 /home/zxli/code/parrot-groundsdk/out/olympe-linux/build/libarsdk/obj/libarsdk/src/net/arsdk_publisher_avahi.c.o
 .data          0x0000000000000000        0x0 /home/zxli/code/parrot-groundsdk/out/olympe-linux/build/libarsdk/obj/libarsdk/src/net/arsdk_publisher_avahi.c.o
 .bss           0x0000000000000000        0x0 /home/zxli/code/parrot-groundsdk/out/olympe-linux/build/libarsdk/obj/libarsdk/src/net/arsdk_publisher_avahi.c.o
 .note.GNU-stack
                0x0000000000000000        0x0 /home/zxli/code/parrot-groundsdk/out/olympe-linux/build/libarsdk/obj/libarsdk/src/net/arsdk_publisher_avahi.c.o
 .text          0x0000000000000000        0x0 /home/zxli/code/parrot-groundsdk/out/olympe-linux/build/libarsdk/obj/libarsdk/src/net/arsdk_publisher_net.c.o
 .data          0x0000000000000000        0x0 /home/zxli/code/parrot-groundsdk/out/olympe-linux/build/libarsdk/obj/libarsdk/src/net/arsdk_publisher_net.c.o
 .bss           0x0000000000000000        0x0 /home/zxli/code/parrot-groundsdk/out/olympe-linux/build/libarsdk/obj/libarsdk/src/net/arsdk_publisher_net.c.o
 .note.GNU-stack
                0x0000000000000000        0x0 /home/zxli/code/parrot-groundsdk/out/olympe-linux/build/libarsdk/obj/libarsdk/src/net/arsdk_publisher_net.c.o
 .text          0x0000000000000000        0x0 /home/zxli/code/parrot-groundsdk/out/olympe-linux/build/libarsdk/obj/libarsdk/src/net/arsdk_transport_net.c.o
 .data          0x0000000000000000        0x0 /home/zxli/code/parrot-groundsdk/out/olympe-linux/build/libarsdk/obj/libarsdk/src/net/arsdk_transport_net.c.o
 .bss           0x0000000000000000        0x0 /home/zxli/code/parrot-groundsdk/out/olympe-linux/build/libarsdk/obj/libarsdk/src/net/arsdk_transport_net.c.o
 .note.GNU-stack
                0x0000000000000000        0x0 /home/zxli/code/parrot-groundsdk/out/olympe-linux/build/libarsdk/obj/libarsdk/src/net/arsdk_transport_net.c.o
 .text          0x0000000000000000        0x0 /home/zxli/code/parrot-groundsdk/out/olympe-linux/build/libarsdk/obj/libarsdk/src/mux/arsdk_backend_mux.c.o
 .data          0x0000000000000000        0x0 /home/zxli/code/parrot-groundsdk/out/olympe-linux/build/libarsdk/obj/libarsdk/src/mux/arsdk_backend_mux.c.o
 .bss           0x0000000000000000        0x0 /home/zxli/code/parrot-groundsdk/out/olympe-linux/build/libarsdk/obj/libarsdk/src/mux/arsdk_backend_mux.c.o
 .note.GNU-stack
                0x0000000000000000        0x0 /home/zxli/code/parrot-groundsdk/out/olympe-linux/build/libarsdk/obj/libarsdk/src/mux/arsdk_backend_mux.c.o
 .text          0x0000000000000000        0x0 /home/zxli/code/parrot-groundsdk/out/olympe-linux/build/libarsdk/obj/libarsdk/src/mux/arsdk_publisher_mux.c.o
 .data          0x0000000000000000        0x0 /home/zxli/code/parrot-groundsdk/out/olympe-linux/build/libarsdk/obj/libarsdk/src/mux/arsdk_publisher_mux.c.o
 .bss           0x0000000000000000        0x0 /home/zxli/code/parrot-groundsdk/out/olympe-linux/build/libarsdk/obj/libarsdk/src/mux/arsdk_publisher_mux.c.o
 .note.GNU-stack
                0x0000000000000000        0x0 /home/zxli/code/parrot-groundsdk/out/olympe-linux/build/libarsdk/obj/libarsdk/src/mux/arsdk_publisher_mux.c.o
 .text          0x0000000000000000        0x0 /home/zxli/code/parrot-groundsdk/out/olympe-linux/build/libarsdk/obj/libarsdk/src/mux/arsdk_transport_mux.c.o
 .data          0x0000000000000000        0x0 /home/zxli/code/parrot-groundsdk/out/olympe-linux/build/libarsdk/obj/libarsdk/src/mux/arsdk_transport_mux.c.o
 .bss           0x0000000000000000        0x0 /home/zxli/code/parrot-groundsdk/out/olympe-linux/build/libarsdk/obj/libarsdk/src/mux/arsdk_transport_mux.c.o
 .note.GNU-stack
                0x0000000000000000        0x0 /home/zxli/code/parrot-groundsdk/out/olympe-linux/build/libarsdk/obj/libarsdk/src/mux/arsdk_transport_mux.c.o
 .text          0x0000000000000000        0x0 /home/zxli/code/parrot-groundsdk/out/olympe-linux/staging/usr/lib/libarsdkgen.a(arsdk_cmd_desc.c.o)
 .data          0x0000000000000000        0x0 /home/zxli/code/parrot-groundsdk/out/olympe-linux/staging/usr/lib/libarsdkgen.a(arsdk_cmd_desc.c.o)
 .bss           0x0000000000000000        0x0 /home/zxli/code/parrot-groundsdk/out/olympe-linux/staging/usr/lib/libarsdkgen.a(arsdk_cmd_desc.c.o)
 .note.GNU-stack
                0x0000000000000000        0x0 /home/zxli/code/parrot-groundsdk/out/olympe-linux/staging/usr/lib/libarsdkgen.a(arsdk_cmd_desc.c.o)
 .text          0x0000000000000000        0x0 /home/zxli/code/parrot-groundsdk/out/olympe-linux/staging/usr/lib/libarsdkgen.a(arsdk_cmd_dec.c.o)
 .data          0x0000000000000000        0x0 /home/zxli/code/parrot-groundsdk/out/olympe-linux/staging/usr/lib/libarsdkgen.a(arsdk_cmd_dec.c.o)
 .bss           0x0000000000000000        0x0 /home/zxli/code/parrot-groundsdk/out/olympe-linux/staging/usr/lib/libarsdkgen.a(arsdk_cmd_dec.c.o)
 .debug_info    0x0000000000000000     0x2940 /home/zxli/code/parrot-groundsdk/out/olympe-linux/staging/usr/lib/libarsdkgen.a(arsdk_cmd_dec.c.o)
 .debug_abbrev  0x0000000000000000       0xdb /home/zxli/code/parrot-groundsdk/out/olympe-linux/staging/usr/lib/libarsdkgen.a(arsdk_cmd_dec.c.o)
 .debug_aranges
                0x0000000000000000       0x20 /home/zxli/code/parrot-groundsdk/out/olympe-linux/staging/usr/lib/libarsdkgen.a(arsdk_cmd_dec.c.o)
 .debug_line    0x0000000000000000      0x12f /home/zxli/code/parrot-groundsdk/out/olympe-linux/staging/usr/lib/libarsdkgen.a(arsdk_cmd_dec.c.o)
 .debug_str     0x0000000000000000     0xaa9e /home/zxli/code/parrot-groundsdk/out/olympe-linux/staging/usr/lib/libarsdkgen.a(arsdk_cmd_dec.c.o)
 .comment       0x0000000000000000       0x2a /home/zxli/code/parrot-groundsdk/out/olympe-linux/staging/usr/lib/libarsdkgen.a(arsdk_cmd_dec.c.o)
 .note.GNU-stack
                0x0000000000000000        0x0 /home/zxli/code/parrot-groundsdk/out/olympe-linux/staging/usr/lib/libarsdkgen.a(arsdk_cmd_dec.c.o)
 .text          0x0000000000000000        0x0 /home/zxli/code/parrot-groundsdk/out/olympe-linux/staging/usr/lib/libarsdkgen.a(arsdk_cmd_enc.c.o)
 .data          0x0000000000000000        0x0 /home/zxli/code/parrot-groundsdk/out/olympe-linux/staging/usr/lib/libarsdkgen.a(arsdk_cmd_enc.c.o)
 .bss           0x0000000000000000        0x0 /home/zxli/code/parrot-groundsdk/out/olympe-linux/staging/usr/lib/libarsdkgen.a(arsdk_cmd_enc.c.o)
 .debug_info    0x0000000000000000     0x2879 /home/zxli/code/parrot-groundsdk/out/olympe-linux/staging/usr/lib/libarsdkgen.a(arsdk_cmd_enc.c.o)
 .debug_abbrev  0x0000000000000000       0xad /home/zxli/code/parrot-groundsdk/out/olympe-linux/staging/usr/lib/libarsdkgen.a(arsdk_cmd_enc.c.o)
 .debug_aranges
                0x0000000000000000       0x20 /home/zxli/code/parrot-groundsdk/out/olympe-linux/staging/usr/lib/libarsdkgen.a(arsdk_cmd_enc.c.o)
 .debug_line    0x0000000000000000       0xe9 /home/zxli/code/parrot-groundsdk/out/olympe-linux/staging/usr/lib/libarsdkgen.a(arsdk_cmd_enc.c.o)
 .debug_str     0x0000000000000000     0xaa13 /home/zxli/code/parrot-groundsdk/out/olympe-linux/staging/usr/lib/libarsdkgen.a(arsdk_cmd_enc.c.o)
 .comment       0x0000000000000000       0x2a /home/zxli/code/parrot-groundsdk/out/olympe-linux/staging/usr/lib/libarsdkgen.a(arsdk_cmd_enc.c.o)
 .note.GNU-stack
                0x0000000000000000        0x0 /home/zxli/code/parrot-groundsdk/out/olympe-linux/staging/usr/lib/libarsdkgen.a(arsdk_cmd_enc.c.o)
 .text          0x0000000000000000        0x0 /usr/lib/gcc/x86_64-linux-gnu/7/crtendS.o
 .data          0x0000000000000000        0x0 /usr/lib/gcc/x86_64-linux-gnu/7/crtendS.o
 .bss           0x0000000000000000        0x0 /usr/lib/gcc/x86_64-linux-gnu/7/crtendS.o
 .note.GNU-stack
                0x0000000000000000        0x0 /usr/lib/gcc/x86_64-linux-gnu/7/crtendS.o
 .text          0x0000000000000000        0x0 /usr/lib/gcc/x86_64-linux-gnu/7/../../../x86_64-linux-gnu/crtn.o
 .data          0x0000000000000000        0x0 /usr/lib/gcc/x86_64-linux-gnu/7/../../../x86_64-linux-gnu/crtn.o
 .bss           0x0000000000000000        0x0 /usr/lib/gcc/x86_64-linux-gnu/7/../../../x86_64-linux-gnu/crtn.o
 .note.GNU-stack
                0x0000000000000000        0x0 /usr/lib/gcc/x86_64-linux-gnu/7/../../../x86_64-linux-gnu/crtn.o

Memory Configuration

Name             Origin             Length             Attributes
*default*        0x0000000000000000 0xffffffffffffffff

Linker script and memory map

LOAD /usr/lib/gcc/x86_64-linux-gnu/7/../../../x86_64-linux-gnu/crti.o
LOAD /usr/lib/gcc/x86_64-linux-gnu/7/crtbeginS.o
LOAD /home/zxli/code/parrot-groundsdk/out/olympe-linux/build/libarsdk/obj/libarsdk/src/arsdk_backend.c.o
LOAD /home/zxli/code/parrot-groundsdk/out/olympe-linux/build/libarsdk/obj/libarsdk/src/cmd_itf/arsdk_cmd_itf.c.o
LOAD /home/zxli/code/parrot-groundsdk/out/olympe-linux/build/libarsdk/obj/libarsdk/src/cmd_itf/arsdk_cmd_itf1.c.o
LOAD /home/zxli/code/parrot-groundsdk/out/olympe-linux/build/libarsdk/obj/libarsdk/src/cmd_itf/arsdk_cmd_itf2.c.o
LOAD /home/zxli/code/parrot-groundsdk/out/olympe-linux/build/libarsdk/obj/libarsdk/src/cmd_itf/arsdk_cmd_itf3.c.o
LOAD /home/zxli/code/parrot-groundsdk/out/olympe-linux/build/libarsdk/obj/libarsdk/src/arsdk_decoder.c.o
LOAD /home/zxli/code/parrot-groundsdk/out/olympe-linux/build/libarsdk/obj/libarsdk/src/arsdk_mngr.c.o
LOAD /home/zxli/code/parrot-groundsdk/out/olympe-linux/build/libarsdk/obj/libarsdk/src/arsdk_encoder.c.o
LOAD /home/zxli/code/parrot-groundsdk/out/olympe-linux/build/libarsdk/obj/libarsdk/src/arsdk_log.c.o
LOAD /home/zxli/code/parrot-groundsdk/out/olympe-linux/build/libarsdk/obj/libarsdk/src/arsdk_peer.c.o
LOAD /home/zxli/code/parrot-groundsdk/out/olympe-linux/build/libarsdk/obj/libarsdk/src/arsdk_transport.c.o
LOAD /home/zxli/code/parrot-groundsdk/out/olympe-linux/build/libarsdk/obj/libarsdk/src/net/arsdk_backend_net.c.o
LOAD /home/zxli/code/parrot-groundsdk/out/olympe-linux/build/libarsdk/obj/libarsdk/src/net/arsdk_publisher_avahi.c.o
LOAD /home/zxli/code/parrot-groundsdk/out/olympe-linux/build/libarsdk/obj/libarsdk/src/net/arsdk_publisher_net.c.o
LOAD /home/zxli/code/parrot-groundsdk/out/olympe-linux/build/libarsdk/obj/libarsdk/src/net/arsdk_transport_net.c.o
LOAD /home/zxli/code/parrot-groundsdk/out/olympe-linux/build/libarsdk/obj/libarsdk/src/mux/arsdk_backend_mux.c.o
LOAD /home/zxli/code/parrot-groundsdk/out/olympe-linux/build/libarsdk/obj/libarsdk/src/mux/arsdk_publisher_mux.c.o
LOAD /home/zxli/code/parrot-groundsdk/out/olympe-linux/build/libarsdk/obj/libarsdk/src/mux/arsdk_transport_mux.c.o
LOAD /home/zxli/code/parrot-groundsdk/out/olympe-linux/staging/usr/lib/libarsdkgen.a
LOAD /home/zxli/code/parrot-groundsdk/out/olympe-linux/staging/usr/lib/libfutils.so
LOAD /home/zxli/code/parrot-groundsdk/out/olympe-linux/staging/usr/lib/libulog.so
LOAD /home/zxli/code/parrot-groundsdk/out/olympe-linux/staging/usr/lib/libmux.so
LOAD /home/zxli/code/parrot-groundsdk/out/olympe-linux/staging/usr/lib/libpomp.so
LOAD /home/zxli/code/parrot-groundsdk/out/olympe-linux/staging/usr/lib/libjson-c.so
LOAD /usr/lib/gcc/x86_64-linux-gnu/7/../../../x86_64-linux-gnu/librt.so
LOAD /usr/lib/gcc/x86_64-linux-gnu/7/libstdc++.so
LOAD /usr/lib/gcc/x86_64-linux-gnu/7/../../../x86_64-linux-gnu/libm.so
START GROUP
LOAD /lib/x86_64-linux-gnu/libm.so.6
LOAD /usr/lib/x86_64-linux-gnu/libmvec_nonshared.a
LOAD /lib/x86_64-linux-gnu/libmvec.so.1
END GROUP
LOAD /usr/lib/gcc/x86_64-linux-gnu/7/libgcc_s.so
START GROUP
LOAD /usr/lib/gcc/x86_64-linux-gnu/7/libgcc_s.so.1
LOAD /usr/lib/gcc/x86_64-linux-gnu/7/libgcc.a
END GROUP
LOAD /usr/lib/gcc/x86_64-linux-gnu/7/../../../x86_64-linux-gnu/libpthread.so
START GROUP
LOAD /lib/x86_64-linux-gnu/libpthread.so.0
LOAD /usr/lib/x86_64-linux-gnu/libpthread_nonshared.a
END GROUP
LOAD /usr/lib/gcc/x86_64-linux-gnu/7/../../../x86_64-linux-gnu/libc.so
START GROUP
LOAD /lib/x86_64-linux-gnu/libc.so.6
LOAD /usr/lib/x86_64-linux-gnu/libc_nonshared.a
LOAD /lib/x86_64-linux-gnu/ld-linux-x86-64.so.2
END GROUP
LOAD /usr/lib/gcc/x86_64-linux-gnu/7/libgcc_s.so
START GROUP
LOAD /usr/lib/gcc/x86_64-linux-gnu/7/libgcc_s.so.1
LOAD /usr/lib/gcc/x86_64-linux-gnu/7/libgcc.a
END GROUP
LOAD /usr/lib/gcc/x86_64-linux-gnu/7/crtendS.o
LOAD /usr/lib/gcc/x86_64-linux-gnu/7/../../../x86_64-linux-gnu/crtn.o
                0x00000000000001c8                . = (SEGMENT_START ("text-segment", 0x0) + SIZEOF_HEADERS)

.note.gnu.build-id
                0x00000000000001c8       0x24
 *(.note.gnu.build-id)
 .note.gnu.build-id
                0x00000000000001c8       0x24 /usr/lib/gcc/x86_64-linux-gnu/7/../../../x86_64-linux-gnu/crti.o

.hash
 *(.hash)

.gnu.hash       0x00000000000001f0     0x1ab0
 *(.gnu.hash)
 .gnu.hash      0x00000000000001f0     0x1ab0 /usr/lib/gcc/x86_64-linux-gnu/7/../../../x86_64-linux-gnu/crti.o

.dynsym         0x0000000000001ca0     0x6030
 *(.dynsym)
 .dynsym        0x0000000000001ca0     0x6030 /usr/lib/gcc/x86_64-linux-gnu/7/../../../x86_64-linux-gnu/crti.o

.dynstr         0x0000000000007cd0     0xb4ef
 *(.dynstr)
 .dynstr        0x0000000000007cd0     0xb4ef /usr/lib/gcc/x86_64-linux-gnu/7/../../../x86_64-linux-gnu/crti.o

.gnu.version    0x00000000000131c0      0x804
 *(.gnu.version)
 .gnu.version   0x00000000000131c0      0x804 /usr/lib/gcc/x86_64-linux-gnu/7/../../../x86_64-linux-gnu/crti.o

.gnu.version_d  0x00000000000139c8        0x0
 *(.gnu.version_d)
 .gnu.version_d
                0x00000000000139c8        0x0 /usr/lib/gcc/x86_64-linux-gnu/7/../../../x86_64-linux-gnu/crti.o

.gnu.version_r  0x00000000000139c8       0xa0
 *(.gnu.version_r)
 .gnu.version_r
                0x00000000000139c8       0xa0 /usr/lib/gcc/x86_64-linux-gnu/7/../../../x86_64-linux-gnu/crti.o

.rela.dyn       0x0000000000013a68    0x250b0
 *(.rela.init)
 *(.rela.text .rela.text.* .rela.gnu.linkonce.t.*)
 .rela.text     0x0000000000013a68        0x0 /usr/lib/gcc/x86_64-linux-gnu/7/../../../x86_64-linux-gnu/crti.o
 .rela.text.arsdk_backend_new
                0x0000000000013a68        0x0 /usr/lib/gcc/x86_64-linux-gnu/7/../../../x86_64-linux-gnu/crti.o
 .rela.text.arsdk_backend_destroy
                0x0000000000013a68        0x0 /usr/lib/gcc/x86_64-linux-gnu/7/../../../x86_64-linux-gnu/crti.o
 .rela.text.arsdk_backend_set_osdata
                0x0000000000013a68        0x0 /usr/lib/gcc/x86_64-linux-gnu/7/../../../x86_64-linux-gnu/crti.o
 .rela.text.arsdk_backend_create_peer
                0x0000000000013a68        0x0 /usr/lib/gcc/x86_64-linux-gnu/7/../../../x86_64-linux-gnu/crti.o
 .rela.text.arsdk_backend_destroy_peer
                0x0000000000013a68        0x0 /usr/lib/gcc/x86_64-linux-gnu/7/../../../x86_64-linux-gnu/crti.o
 .rela.text.arsdk_backend_accept_peer_conn
                0x0000000000013a68        0x0 /usr/lib/gcc/x86_64-linux-gnu/7/../../../x86_64-linux-gnu/crti.o
 .rela.text.arsdk_backend_reject_peer_conn
                0x0000000000013a68        0x0 /usr/lib/gcc/x86_64-linux-gnu/7/../../../x86_64-linux-gnu/crti.o
 .rela.text.arsdk_backend_stop_peer_conn
                0x0000000000013a68        0x0 /usr/lib/gcc/x86_64-linux-gnu/7/../../../x86_64-linux-gnu/crti.o
 .rela.text.arsdk_backend_socket_cb
                0x0000000000013a68        0x0 /usr/lib/gcc/x86_64-linux-gnu/7/../../../x86_64-linux-gnu/crti.o
 .rela.text.itf3_dispose
                0x0000000000013a68        0x0 /usr/lib/gcc/x86_64-linux-gnu/7/../../../x86_64-linux-gnu/crti.o
 .rela.text.itf2_dispose
                0x0000000000013a68        0x0 /usr/lib/gcc/x86_64-linux-gnu/7/../../../x86_64-linux-gnu/crti.o
 .rela.text.itf1_dispose
                0x0000000000013a68        0x0 /usr/lib/gcc/x86_64-linux-gnu/7/../../../x86_64-linux-gnu/crti.o
 .rela.text.arsdk_cmd_itf_destroy
                0x0000000000013a68        0x0 /usr/lib/gcc/x86_64-linux-gnu/7/../../../x86_64-linux-gnu/crti.o
 .rela.text.arsdk_cmd_itf_new
                0x0000000000013a68        0x0 /usr/lib/gcc/x86_64-linux-gnu/7/../../../x86_64-linux-gnu/crti.o
 .rela.text.arsdk_cmd_itf_set_osdata
                0x0000000000013a68        0x0 /usr/lib/gcc/x86_64-linux-gnu/7/../../../x86_64-linux-gnu/crti.o
 .rela.text.arsdk_cmd_itf_stop
                0x0000000000013a68        0x0 /usr/lib/gcc/x86_64-linux-gnu/7/../../../x86_64-linux-gnu/crti.o
 .rela.text.arsdk_cmd_itf_send
                0x0000000000013a68        0x0 /usr/lib/gcc/x86_64-linux-gnu/7/../../../x86_64-linux-gnu/crti.o
 .rela.text.arsdk_cmd_itf_recv_data
                0x0000000000013a68        0x0 /usr/lib/gcc/x86_64-linux-gnu/7/../../../x86_64-linux-gnu/crti.o
 .rela.text.link_quality_timer_cb
                0x0000000000013a68        0x0 /usr/lib/gcc/x86_64-linux-gnu/7/../../../x86_64-linux-gnu/crti.o
 .rela.text.recv_ack.isra.6
                0x0000000000013a68        0x0 /usr/lib/gcc/x86_64-linux-gnu/7/../../../x86_64-linux-gnu/crti.o
 .rela.text.check_tx_queues
                0x0000000000013a68        0x0 /usr/lib/gcc/x86_64-linux-gnu/7/../../../x86_64-linux-gnu/crti.o
 .rela.text.arsdk_cmd_itf1_stop
                0x0000000000013a68        0x0 /usr/lib/gcc/x86_64-linux-gnu/7/../../../x86_64-linux-gnu/crti.o
 .rela.text.arsdk_cmd_itf1_send
                0x0000000000013a68        0x0 /usr/lib/gcc/x86_64-linux-gnu/7/../../../x86_64-linux-gnu/crti.o
 .rela.text.arsdk_cmd_itf1_recv_data
                0x0000000000013a68        0x0 /usr/lib/gcc/x86_64-linux-gnu/7/../../../x86_64-linux-gnu/crti.o
 .rela.text.arsdk_cmd_itf1_destroy
                0x0000000000013a68        0x0 /usr/lib/gcc/x86_64-linux-gnu/7/../../../x86_64-linux-gnu/crti.o
 .rela.text.arsdk_cmd_itf1_new
                0x0000000000013a68        0x0 /usr/lib/gcc/x86_64-linux-gnu/7/../../../x86_64-linux-gnu/crti.o
 .rela.text.unpack_cmds
                0x0000000000013a68        0x0 /usr/lib/gcc/x86_64-linux-gnu/7/../../../x86_64-linux-gnu/crti.o
 .rela.text.arsdk_cmd_itf2_stop
                0x0000000000013a68        0x0 /usr/lib/gcc/x86_64-linux-gnu/7/../../../x86_64-linux-gnu/crti.o
 .rela.text.arsdk_cmd_itf2_send
                0x0000000000013a68        0x0 /usr/lib/gcc/x86_64-linux-gnu/7/../../../x86_64-linux-gnu/crti.o
 .rela.text.arsdk_cmd_itf2_recv_data
                0x0000000000013a68        0x0 /usr/lib/gcc/x86_64-linux-gnu/7/../../../x86_64-linux-gnu/crti.o
 .rela.text.arsdk_cmd_itf2_destroy
                0x0000000000013a68        0x0 /usr/lib/gcc/x86_64-linux-gnu/7/../../../x86_64-linux-gnu/crti.o
 .rela.text.arsdk_cmd_itf2_new
                0x0000000000013a68        0x0 /usr/lib/gcc/x86_64-linux-gnu/7/../../../x86_64-linux-gnu/crti.o
 .rela.text.arsdk_cmd_itf3_stop
                0x0000000000013a68        0x0 /usr/lib/gcc/x86_64-linux-gnu/7/../../../x86_64-linux-gnu/crti.o
 .rela.text.arsdk_cmd_itf3_send
                0x0000000000013a68        0x0 /usr/lib/gcc/x86_64-linux-gnu/7/../../../x86_64-linux-gnu/crti.o
 .rela.text.arsdk_cmd_itf3_recv_data
                0x0000000000013a68        0x0 /usr/lib/gcc/x86_64-linux-gnu/7/../../../x86_64-linux-gnu/crti.o
 .rela.text.arsdk_cmd_itf3_destroy
                0x0000000000013a68        0x0 /usr/lib/gcc/x86_64-linux-gnu/7/../../../x86_64-linux-gnu/crti.o
 .rela.text.arsdk_cmd_itf3_new
                0x0000000000013a68        0x0 /usr/lib/gcc/x86_64-linux-gnu/7/../../../x86_64-linux-gnu/crti.o
 .rela.text.decoder_read_cstr
                0x0000000000013a68        0x0 /usr/lib/gcc/x86_64-linux-gnu/7/../../../x86_64-linux-gnu/crti.o
 .rela.text.arsdk_cmd_dec
                0x0000000000013a68        0x0 /usr/lib/gcc/x86_64-linux-gnu/7/../../../x86_64-linux-gnu/crti.o
 .rela.text.arsdk_cmd_dec_header
                0x0000000000013a68        0x0 /usr/lib/gcc/x86_64-linux-gnu/7/../../../x86_64-linux-gnu/crti.o
 .rela.text.arsdk_cmd_get_values
                0x0000000000013a68        0x0 /usr/lib/gcc/x86_64-linux-gnu/7/../../../x86_64-linux-gnu/crti.o
 .rela.text.arsdk_cmd_fmt
                0x0000000000013a68        0x0 /usr/lib/gcc/x86_64-linux-gnu/7/../../../x86_64-linux-gnu/crti.o
 .rela.text.arsdk_mngr_new
                0x0000000000013a68        0x0 /usr/lib/gcc/x86_64-linux-gnu/7/../../../x86_64-linux-gnu/crti.o
 .rela.text.arsdk_mngr_set_peer_cbs
                0x0000000000013a68        0x0 /usr/lib/gcc/x86_64-linux-gnu/7/../../../x86_64-linux-gnu/crti.o
 .rela.text.arsdk_mngr_create_peer
                0x0000000000013a68        0x0 /usr/lib/gcc/x86_64-linux-gnu/7/../../../x86_64-linux-gnu/crti.o
 .rela.text.arsdk_mngr_destroy_peer
                0x0000000000013a68        0x0 /usr/lib/gcc/x86_64-linux-gnu/7/../../../x86_64-linux-gnu/crti.o
 .rela.text.arsdk_mngr_register_backend
                0x0000000000013a68        0x0 /usr/lib/gcc/x86_64-linux-gnu/7/../../../x86_64-linux-gnu/crti.o
 .rela.text.arsdk_mngr_unregister_backend
                0x0000000000013a68        0x0 /usr/lib/gcc/x86_64-linux-gnu/7/../../../x86_64-linux-gnu/crti.o
 .rela.text.arsdk_mngr_destroy
                0x0000000000013a68        0x0 /usr/lib/gcc/x86_64-linux-gnu/7/../../../x86_64-linux-gnu/crti.o
 .rela.text.cmd_encv_internal
                0x0000000000013a68        0x0 /usr/lib/gcc/x86_64-linux-gnu/7/../../../x86_64-linux-gnu/crti.o
 .rela.text.connected
                0x0000000000013a68        0x0 /usr/lib/gcc/x86_64-linux-gnu/7/../../../x86_64-linux-gnu/crti.o
 .rela.text.cmd_itf_dispose
                0x0000000000013a68        0x0 /usr/lib/gcc/x86_64-linux-gnu/7/../../../x86_64-linux-gnu/crti.o
 .rela.text.recv_data
                0x0000000000013a68        0x0 /usr/lib/gcc/x86_64-linux-gnu/7/../../../x86_64-linux-gnu/crti.o
 .rela.text.arsdk_peer_destroy
                0x0000000000013a68        0x0 /usr/lib/gcc/x86_64-linux-gnu/7/../../../x86_64-linux-gnu/crti.o
 .rela.text.arsdk_peer_new
                0x0000000000013a68        0x0 /usr/lib/gcc/x86_64-linux-gnu/7/../../../x86_64-linux-gnu/crti.o
 .rela.text.arsdk_peer_set_osdata
                0x0000000000013a68        0x0 /usr/lib/gcc/x86_64-linux-gnu/7/../../../x86_64-linux-gnu/crti.o
 .rela.text.arsdk_peer_get_info
                0x0000000000013a68        0x0 /usr/lib/gcc/x86_64-linux-gnu/7/../../../x86_64-linux-gnu/crti.o
 .rela.text.arsdk_peer_cancel
                0x0000000000013a68        0x0 /usr/lib/gcc/x86_64-linux-gnu/7/../../../x86_64-linux-gnu/crti.o
 .rela.text.arsdk_peer_accept
                0x0000000000013a68        0x0 /usr/lib/gcc/x86_64-linux-gnu/7/../../../x86_64-linux-gnu/crti.o
 .rela.text.arsdk_peer_reject
                0x0000000000013a68        0x0 /usr/lib/gcc/x86_64-linux-gnu/7/../../../x86_64-linux-gnu/crti.o
 .rela.text.arsdk_peer_disconnect
                0x0000000000013a68        0x0 /usr/lib/gcc/x86_64-linux-gnu/7/../../../x86_64-linux-gnu/crti.o
 .rela.text.arsdk_peer_create_cmd_itf
                0x0000000000013a68        0x0 /usr/lib/gcc/x86_64-linux-gnu/7/../../../x86_64-linux-gnu/crti.o
 .rela.text.restart_ping
                0x0000000000013a68        0x0 /usr/lib/gcc/x86_64-linux-gnu/7/../../../x86_64-linux-gnu/crti.o
 .rela.text.arsdk_transport_new
                0x0000000000013a68        0x0 /usr/lib/gcc/x86_64-linux-gnu/7/../../../x86_64-linux-gnu/crti.o
 .rela.text.arsdk_transport_destroy
                0x0000000000013a68        0x0 /usr/lib/gcc/x86_64-linux-gnu/7/../../../x86_64-linux-gnu/crti.o
 .rela.text.arsdk_transport_start
                0x0000000000013a68        0x0 /usr/lib/gcc/x86_64-linux-gnu/7/../../../x86_64-linux-gnu/crti.o
 .rela.text.arsdk_transport_stop
                0x0000000000013a68        0x0 /usr/lib/gcc/x86_64-linux-gnu/7/../../../x86_64-linux-gnu/crti.o
 .rela.text.arsdk_transport_send_data
                0x0000000000013a68        0x0 /usr/lib/gcc/x86_64-linux-gnu/7/../../../x86_64-linux-gnu/crti.o
 .rela.text.arsdk_transport_set_link_status
                0x0000000000013a68        0x0 /usr/lib/gcc/x86_64-linux-gnu/7/../../../x86_64-linux-gnu/crti.o
 .rela.text.timer_cb
                0x0000000000013a68        0x0 /usr/lib/gcc/x86_64-linux-gnu/7/../../../x86_64-linux-gnu/crti.o
 .rela.text.arsdk_transport_recv_data
                0x0000000000013a68        0x0 /usr/lib/gcc/x86_64-linux-gnu/7/../../../x86_64-linux-gnu/crti.o
 .rela.text.arsdk_transport_get_proto_v
                0x0000000000013a68        0x0 /usr/lib/gcc/x86_64-linux-gnu/7/../../../x86_64-linux-gnu/crti.o
 .rela.text.peer_conn_destroy
                0x0000000000013a68        0x0 /usr/lib/gcc/x86_64-linux-gnu/7/../../../x86_64-linux-gnu/crti.o
 .rela.text.backend_net_event_cb
                0x0000000000013a68        0x0 /usr/lib/gcc/x86_64-linux-gnu/7/../../../x86_64-linux-gnu/crti.o
 .rela.text.peer_conn_send_json
                0x0000000000013a68        0x0 /usr/lib/gcc/x86_64-linux-gnu/7/../../../x86_64-linux-gnu/crti.o
 .rela.text.arsdk_backend_net_reject_peer_conn
                0x0000000000013a68        0x0 /usr/lib/gcc/x86_64-linux-gnu/7/../../../x86_64-linux-gnu/crti.o
 .rela.text.arsdk_backend_net_stop_peer_conn
                0x0000000000013a68        0x0 /usr/lib/gcc/x86_64-linux-gnu/7/../../../x86_64-linux-gnu/crti.o
 .rela.text.arsdk_backend_net_socket_cb
                0x0000000000013a68        0x0 /usr/lib/gcc/x86_64-linux-gnu/7/../../../x86_64-linux-gnu/crti.o
 .rela.text.backend_net_pomp_socket_cb
                0x0000000000013a68        0x0 /usr/lib/gcc/x86_64-linux-gnu/7/../../../x86_64-linux-gnu/crti.o
 .rela.text.backend_net_socket_cb
                0x0000000000013a68        0x0 /usr/lib/gcc/x86_64-linux-gnu/7/../../../x86_64-linux-gnu/crti.o
 .rela.text.arsdk_backend_net_accept_peer_conn
                0x0000000000013a68        0x0 /usr/lib/gcc/x86_64-linux-gnu/7/../../../x86_64-linux-gnu/crti.o
 .rela.text.backend_net_raw_cb
                0x0000000000013a68        0x0 /usr/lib/gcc/x86_64-linux-gnu/7/../../../x86_64-linux-gnu/crti.o
 .rela.text.arsdk_backend_net_start_listen
                0x0000000000013a68        0x0 /usr/lib/gcc/x86_64-linux-gnu/7/../../../x86_64-linux-gnu/crti.o
 .rela.text.arsdk_backend_net_stop_listen
                0x0000000000013a68        0x0 /usr/lib/gcc/x86_64-linux-gnu/7/../../../x86_64-linux-gnu/crti.o
 .rela.text.arsdk_backend_net_new
                0x0000000000013a68        0x0 /usr/lib/gcc/x86_64-linux-gnu/7/../../../x86_64-linux-gnu/crti.o
 .rela.text.arsdk_backend_net_destroy
                0x0000000000013a68        0x0 /usr/lib/gcc/x86_64-linux-gnu/7/../../../x86_64-linux-gnu/crti.o
 .rela.text.arsdk_backend_net_set_socket_cb
                0x0000000000013a68        0x0 /usr/lib/gcc/x86_64-linux-gnu/7/../../../x86_64-linux-gnu/crti.o
 .rela.text.arsdk_publisher_avahi_new
                0x0000000000013a68        0x0 /usr/lib/gcc/x86_64-linux-gnu/7/../../../x86_64-linux-gnu/crti.o
 .rela.text.arsdk_publisher_avahi_destroy
                0x0000000000013a68        0x0 /usr/lib/gcc/x86_64-linux-gnu/7/../../../x86_64-linux-gnu/crti.o
 .rela.text.arsdk_publisher_avahi_start
                0x0000000000013a68        0x0 /usr/lib/gcc/x86_64-linux-gnu/7/../../../x86_64-linux-gnu/crti.o
 .rela.text.arsdk_publisher_avahi_stop
                0x0000000000013a68        0x0 /usr/lib/gcc/x86_64-linux-gnu/7/../../../x86_64-linux-gnu/crti.o
 .rela.text.socket_cb
                0x0000000000013a68        0x0 /usr/lib/gcc/x86_64-linux-gnu/7/../../../x86_64-linux-gnu/crti.o
 .rela.text.event_cb
                0x0000000000013a68        0x0 /usr/lib/gcc/x86_64-linux-gnu/7/../../../x86_64-linux-gnu/crti.o
 .rela.text.get_ip_addr
                0x0000000000013a68        0x0 /usr/lib/gcc/x86_64-linux-gnu/7/../../../x86_64-linux-gnu/crti.o
 .rela.text.arsdk_publisher_net_destroy
                0x0000000000013a68        0x0 /usr/lib/gcc/x86_64-linux-gnu/7/../../../x86_64-linux-gnu/crti.o
 .rela.text.arsdk_publisher_net_new
                0x0000000000013a68        0x0 /usr/lib/gcc/x86_64-linux-gnu/7/../../../x86_64-linux-gnu/crti.o
 .rela.text.arsdk_publisher_net_start
                0x0000000000013a68        0x0 /usr/lib/gcc/x86_64-linux-gnu/7/../../../x86_64-linux-gnu/crti.o
 .rela.text.arsdk_publisher_net_stop
                0x0000000000013a68        0x0 /usr/lib/gcc/x86_64-linux-gnu/7/../../../x86_64-linux-gnu/crti.o
 .rela.text.arsdk_transport_net_get_proto_v
                0x0000000000013a68        0x0 /usr/lib/gcc/x86_64-linux-gnu/7/../../../x86_64-linux-gnu/crti.o
 .rela.text.arsdk_transport_net_stop
                0x0000000000013a68        0x0 /usr/lib/gcc/x86_64-linux-gnu/7/../../../x86_64-linux-gnu/crti.o
 .rela.text.arsdk_transport_net_dispose
                0x0000000000013a68        0x0 /usr/lib/gcc/x86_64-linux-gnu/7/../../../x86_64-linux-gnu/crti.o
 .rela.text.arsdk_transport_net_send_data
                0x0000000000013a68        0x0 /usr/lib/gcc/x86_64-linux-gnu/7/../../../x86_64-linux-gnu/crti.o
 .rela.text.data_fd_cb
                0x0000000000013a68        0x0 /usr/lib/gcc/x86_64-linux-gnu/7/../../../x86_64-linux-gnu/crti.o
 .rela.text.arsdk_transport_net_start
                0x0000000000013a68        0x0 /usr/lib/gcc/x86_64-linux-gnu/7/../../../x86_64-linux-gnu/crti.o
 .rela.text.arsdk_transport_net_new
                0x0000000000013a68        0x0 /usr/lib/gcc/x86_64-linux-gnu/7/../../../x86_64-linux-gnu/crti.o
 .rela.text.arsdk_transport_net_get_cfg
                0x0000000000013a68        0x0 /usr/lib/gcc/x86_64-linux-gnu/7/../../../x86_64-linux-gnu/crti.o
 .rela.text.arsdk_transport_net_update_cfg
                0x0000000000013a68        0x0 /usr/lib/gcc/x86_64-linux-gnu/7/../../../x86_64-linux-gnu/crti.o
 .rela.text.arsdk_transport_net_socket_cb
                0x0000000000013a68        0x0 /usr/lib/gcc/x86_64-linux-gnu/7/../../../x86_64-linux-gnu/crti.o
 .rela.text.backend_mux_channel_cb
                0x0000000000013a68        0x0 /usr/lib/gcc/x86_64-linux-gnu/7/../../../x86_64-linux-gnu/crti.o
 .rela.text.backend_mux_write_msg.constprop.3
                0x0000000000013a68        0x0 /usr/lib/gcc/x86_64-linux-gnu/7/../../../x86_64-linux-gnu/crti.o
 .rela.text.arsdk_backend_mux_accept_peer_conn
                0x0000000000013a68        0x0 /usr/lib/gcc/x86_64-linux-gnu/7/../../../x86_64-linux-gnu/crti.o
 .rela.text.arsdk_backend_mux_reject_peer_conn
                0x0000000000013a68        0x0 /usr/lib/gcc/x86_64-linux-gnu/7/../../../x86_64-linux-gnu/crti.o
 .rela.text.arsdk_backend_mux_stop_peer_conn
                0x0000000000013a68        0x0 /usr/lib/gcc/x86_64-linux-gnu/7/../../../x86_64-linux-gnu/crti.o
 .rela.text.arsdk_backend_mux_start_listen
                0x0000000000013a68        0x0 /usr/lib/gcc/x86_64-linux-gnu/7/../../../x86_64-linux-gnu/crti.o
 .rela.text.arsdk_backend_mux_new
                0x0000000000013a68        0x0 /usr/lib/gcc/x86_64-linux-gnu/7/../../../x86_64-linux-gnu/crti.o
 .rela.text.arsdk_backend_mux_destroy
                0x0000000000013a68        0x0 /usr/lib/gcc/x86_64-linux-gnu/7/../../../x86_64-linux-gnu/crti.o
 .rela.text.publisher_mux_write_msg.constprop.4
                0x0000000000013a68        0x0 /usr/lib/gcc/x86_64-linux-gnu/7/../../../x86_64-linux-gnu/crti.o
 .rela.text.publisher_mux_channel_cb
                0x0000000000013a68        0x0 /usr/lib/gcc/x86_64-linux-gnu/7/../../../x86_64-linux-gnu/crti.o
 .rela.text.arsdk_publisher_mux_destroy
                0x0000000000013a68        0x0 /usr/lib/gcc/x86_64-linux-gnu/7/../../../x86_64-linux-gnu/crti.o
 .rela.text.arsdk_publisher_mux_new
                0x0000000000013a68        0x0 /usr/lib/gcc/x86_64-linux-gnu/7/../../../x86_64-linux-gnu/crti.o
 .rela.text.arsdk_publisher_mux_start
                0x0000000000013a68        0x0 /usr/lib/gcc/x86_64-linux-gnu/7/../../../x86_64-linux-gnu/crti.o
 .rela.text.arsdk_publisher_mux_stop
                0x0000000000013a68        0x0 /usr/lib/gcc/x86_64-linux-gnu/7/../../../x86_64-linux-gnu/crti.o
 .rela.text.arsdk_transport_mux_send_data
                0x0000000000013a68        0x0 /usr/lib/gcc/x86_64-linux-gnu/7/../../../x86_64-linux-gnu/crti.o
 .rela.text.arsdk_transport_mux_stop
                0x0000000000013a68        0x0 /usr/lib/gcc/x86_64-linux-gnu/7/../../../x86_64-linux-gnu/crti.o
 .rela.text.arsdk_transport_mux_start
                0x0000000000013a68        0x0 /usr/lib/gcc/x86_64-linux-gnu/7/../../../x86_64-linux-gnu/crti.o
 .rela.text.arsdk_transport_mux_get_proto_v
                0x0000000000013a68        0x0 /usr/lib/gcc/x86_64-linux-gnu/7/../../../x86_64-linux-gnu/crti.o
 .rela.text.transport_mux_channel_cb
                0x0000000000013a68        0x0 /usr/lib/gcc/x86_64-linux-gnu/7/../../../x86_64-linux-gnu/crti.o
 .rela.text.arsdk_transport_mux_dispose
                0x0000000000013a68        0x0 /usr/lib/gcc/x86_64-linux-gnu/7/../../../x86_64-linux-gnu/crti.o
 .rela.text.arsdk_transport_mux_new
                0x0000000000013a68        0x0 /usr/lib/gcc/x86_64-linux-gnu/7/../../../x86_64-linux-gnu/crti.o
 .rela.text.arsdk_transport_mux_get_cfg
                0x0000000000013a68        0x0 /usr/lib/gcc/x86_64-linux-gnu/7/../../../x86_64-linux-gnu/crti.o
 .rela.text.arsdk_transport_mux_update_cfg
                0x0000000000013a68        0x0 /usr/lib/gcc/x86_64-linux-gnu/7/../../../x86_64-linux-gnu/crti.o
 *(.rela.fini)
 *(.rela.rodata .rela.rodata.* .rela.gnu.linkonce.r.*)
 *(.rela.data .rela.data.* .rela.gnu.linkonce.d.*)
 .rela.data.rel.local
                0x0000000000013a68     0x1470 /usr/lib/gcc/x86_64-linux-gnu/7/../../../x86_64-linux-gnu/crti.o
 .rela.data.rel.ro.local
                0x0000000000014ed8    0x1ee58 /usr/lib/gcc/x86_64-linux-gnu/7/../../../x86_64-linux-gnu/crti.o
 .rela.data.rel.ro
                0x0000000000033d30     0x4d40 /usr/lib/gcc/x86_64-linux-gnu/7/../../../x86_64-linux-gnu/crti.o
 *(.rela.tdata .rela.tdata.* .rela.gnu.linkonce.td.*)
 *(.rela.tbss .rela.tbss.* .rela.gnu.linkonce.tb.*)
 *(.rela.ctors)
 *(.rela.dtors)
 *(.rela.got)
 .rela.got      0x0000000000038a70       0x78 /usr/lib/gcc/x86_64-linux-gnu/7/../../../x86_64-linux-gnu/crti.o
 *(.rela.bss .rela.bss.* .rela.gnu.linkonce.b.*)
 *(.rela.ldata .rela.ldata.* .rela.gnu.linkonce.l.*)
 *(.rela.lbss .rela.lbss.* .rela.gnu.linkonce.lb.*)
 *(.rela.lrodata .rela.lrodata.* .rela.gnu.linkonce.lr.*)
 *(.rela.ifunc)
 .rela.ifunc    0x0000000000038ae8        0x0 /usr/lib/gcc/x86_64-linux-gnu/7/../../../x86_64-linux-gnu/crti.o
 .rela.fini_array
                0x0000000000038ae8       0x18 /usr/lib/gcc/x86_64-linux-gnu/7/../../../x86_64-linux-gnu/crti.o
 .rela.init_array
                0x0000000000038b00       0x18 /usr/lib/gcc/x86_64-linux-gnu/7/../../../x86_64-linux-gnu/crti.o

.rela.plt       0x0000000000038b18      0xcd8
 *(.rela.plt)
 .rela.plt      0x0000000000038b18      0xcd8 /usr/lib/gcc/x86_64-linux-gnu/7/../../../x86_64-linux-gnu/crti.o
 *(.rela.iplt)

.init           0x00000000000397f0       0x17
 *(SORT_NONE(.init))
 .init          0x00000000000397f0       0x12 /usr/lib/gcc/x86_64-linux-gnu/7/../../../x86_64-linux-gnu/crti.o
                0x00000000000397f0                _init
 .init          0x0000000000039802        0x5 /usr/lib/gcc/x86_64-linux-gnu/7/../../../x86_64-linux-gnu/crtn.o

.plt            0x0000000000039810      0x8a0
 *(.plt)
 .plt           0x0000000000039810      0x8a0 /usr/lib/gcc/x86_64-linux-gnu/7/../../../x86_64-linux-gnu/crti.o
 *(.iplt)

.plt.got        0x000000000003a0b0        0x8
 *(.plt.got)
 .plt.got       0x000000000003a0b0        0x8 /usr/lib/gcc/x86_64-linux-gnu/7/../../../x86_64-linux-gnu/crti.o

.plt.sec
 *(.plt.sec)

.text           0x000000000003a0c0    0x14598
 *(.text.unlikely .text.*_unlikely .text.unlikely.*)
 *(.text.exit .text.exit.*)
 *(.text.startup .text.startup.*)
 *(.text.hot .text.hot.*)
 *(.text .stub .text.* .gnu.linkonce.t.*)
 .text          0x000000000003a0c0       0xda /usr/lib/gcc/x86_64-linux-gnu/7/crtbeginS.o
 *fill*         0x000000000003a19a        0x6 
 .text.arsdk_socket_kind_str
                0x000000000003a1a0       0x68 /home/zxli/code/parrot-groundsdk/out/olympe-linux/build/libarsdk/obj/libarsdk/src/arsdk_backend.c.o
                0x000000000003a1a0                arsdk_socket_kind_str
 *fill*         0x000000000003a208        0x8 
 .text.arsdk_device_type_str
                0x000000000003a210      0x1d8 /home/zxli/code/parrot-groundsdk/out/olympe-linux/build/libarsdk/obj/libarsdk/src/arsdk_backend.c.o
                0x000000000003a210                arsdk_device_type_str
 *fill*         0x000000000003a3e8        0x8 
 .text.arsdk_conn_cancel_reason_str
                0x000000000003a3f0       0x2c /home/zxli/code/parrot-groundsdk/out/olympe-linux/build/libarsdk/obj/libarsdk/src/arsdk_backend.c.o
                0x000000000003a3f0                arsdk_conn_cancel_reason_str
 *fill*         0x000000000003a41c        0x4 
 .text.arsdk_link_status_str
                0x000000000003a420       0x22 /home/zxli/code/parrot-groundsdk/out/olympe-linux/build/libarsdk/obj/libarsdk/src/arsdk_backend.c.o
                0x000000000003a420                arsdk_link_status_str
 *fill*         0x000000000003a442        0xe 
 .text.arsdk_backend_type_str
                0x000000000003a450       0x2e /home/zxli/code/parrot-groundsdk/out/olympe-linux/build/libarsdk/obj/libarsdk/src/arsdk_backend.c.o
                0x000000000003a450                arsdk_backend_type_str
 *fill*         0x000000000003a47e        0x2 
 .text.arsdk_backend_new
                0x000000000003a480      0x247 /home/zxli/code/parrot-groundsdk/out/olympe-linux/build/libarsdk/obj/libarsdk/src/arsdk_backend.c.o
                0x000000000003a480                arsdk_backend_new
 *fill*         0x000000000003a6c7        0x9 
 .text.arsdk_backend_destroy
                0x000000000003a6d0       0xad /home/zxli/code/parrot-groundsdk/out/olympe-linux/build/libarsdk/obj/libarsdk/src/arsdk_backend.c.o
                0x000000000003a6d0                arsdk_backend_destroy
 *fill*         0x000000000003a77d        0x3 
 .text.arsdk_backend_get_child
                0x000000000003a780       0x13 /home/zxli/code/parrot-groundsdk/out/olympe-linux/build/libarsdk/obj/libarsdk/src/arsdk_backend.c.o
                0x000000000003a780                arsdk_backend_get_child
 *fill*         0x000000000003a793        0xd 
 .text.arsdk_backend_set_osdata
                0x000000000003a7a0       0x85 /home/zxli/code/parrot-groundsdk/out/olympe-linux/build/libarsdk/obj/libarsdk/src/arsdk_backend.c.o
                0x000000000003a7a0                arsdk_backend_set_osdata
 *fill*         0x000000000003a825        0xb 
 .text.arsdk_backend_get_osdata
                0x000000000003a830       0x13 /home/zxli/code/parrot-groundsdk/out/olympe-linux/build/libarsdk/obj/libarsdk/src/arsdk_backend.c.o
                0x000000000003a830                arsdk_backend_get_osdata
 *fill*         0x000000000003a843        0xd 
 .text.arsdk_backend_get_name
                0x000000000003a850       0x13 /home/zxli/code/parrot-groundsdk/out/olympe-linux/build/libarsdk/obj/libarsdk/src/arsdk_backend.c.o
                0x000000000003a850                arsdk_backend_get_name
 *fill*         0x000000000003a863        0xd 
 .text.arsdk_backend_get_type
                0x000000000003a870        0xf /home/zxli/code/parrot-groundsdk/out/olympe-linux/build/libarsdk/obj/libarsdk/src/arsdk_backend.c.o
                0x000000000003a870                arsdk_backend_get_type
 *fill*         0x000000000003a87f        0x1 
 .text.arsdk_backend_create_peer
                0x000000000003a880       0x9d /home/zxli/code/parrot-groundsdk/out/olympe-linux/build/libarsdk/obj/libarsdk/src/arsdk_backend.c.o
                0x000000000003a880                arsdk_backend_create_peer
 *fill*         0x000000000003a91d        0x3 
 .text.arsdk_backend_destroy_peer
                0x000000000003a920       0x8d /home/zxli/code/parrot-groundsdk/out/olympe-linux/build/libarsdk/obj/libarsdk/src/arsdk_backend.c.o
                0x000000000003a920                arsdk_backend_destroy_peer
 *fill*         0x000000000003a9ad        0x3 
 .text.arsdk_backend_accept_peer_conn
                0x000000000003a9b0       0x9c /home/zxli/code/parrot-groundsdk/out/olympe-linux/build/libarsdk/obj/libarsdk/src/arsdk_backend.c.o
                0x000000000003a9b0                arsdk_backend_accept_peer_conn
 *fill*         0x000000000003aa4c        0x4 
 .text.arsdk_backend_reject_peer_conn
                0x000000000003aa50       0x9c /home/zxli/code/parrot-groundsdk/out/olympe-linux/build/libarsdk/obj/libarsdk/src/arsdk_backend.c.o
                0x000000000003aa50                arsdk_backend_reject_peer_conn
 *fill*         0x000000000003aaec        0x4 
 .text.arsdk_backend_stop_peer_conn
                0x000000000003aaf0       0x9c /home/zxli/code/parrot-groundsdk/out/olympe-linux/build/libarsdk/obj/libarsdk/src/arsdk_backend.c.o
                0x000000000003aaf0                arsdk_backend_stop_peer_conn
 *fill*         0x000000000003ab8c        0x4 
 .text.arsdk_backend_socket_cb
                0x000000000003ab90       0x95 /home/zxli/code/parrot-groundsdk/out/olympe-linux/build/libarsdk/obj/libarsdk/src/arsdk_backend.c.o
                0x000000000003ab90                arsdk_backend_socket_cb
 *fill*         0x000000000003ac25        0xb 
 .text.itf3_dispose
                0x000000000003ac30       0x8c /home/zxli/code/parrot-groundsdk/out/olympe-linux/build/libarsdk/obj/libarsdk/src/cmd_itf/arsdk_cmd_itf.c.o
 *fill*         0x000000000003acbc        0x4 
 .text.itf2_dispose
                0x000000000003acc0       0x8c /home/zxli/code/parrot-groundsdk/out/olympe-linux/build/libarsdk/obj/libarsdk/src/cmd_itf/arsdk_cmd_itf.c.o
 *fill*         0x000000000003ad4c        0x4 
 .text.itf1_dispose
                0x000000000003ad50       0x8c /home/zxli/code/parrot-groundsdk/out/olympe-linux/build/libarsdk/obj/libarsdk/src/cmd_itf/arsdk_cmd_itf.c.o
 *fill*         0x000000000003addc        0x4 
 .text.arsdk_cmd_itf_send_status_str
                0x000000000003ade0       0x38 /home/zxli/code/parrot-groundsdk/out/olympe-linux/build/libarsdk/obj/libarsdk/src/cmd_itf/arsdk_cmd_itf.c.o
                0x000000000003ade0                arsdk_cmd_itf_send_status_str
 *fill*         0x000000000003ae18        0x8 
 .text.arsdk_cmd_itf_destroy
                0x000000000003ae20       0xad /home/zxli/code/parrot-groundsdk/out/olympe-linux/build/libarsdk/obj/libarsdk/src/cmd_itf/arsdk_cmd_itf.c.o
                0x000000000003ae20                arsdk_cmd_itf_destroy
 *fill*         0x000000000003aecd        0x3 
 .text.arsdk_cmd_itf_new
                0x000000000003aed0      0x419 /home/zxli/code/parrot-groundsdk/out/olympe-linux/build/libarsdk/obj/libarsdk/src/cmd_itf/arsdk_cmd_itf.c.o
                0x000000000003aed0                arsdk_cmd_itf_new
 *fill*         0x000000000003b2e9        0x7 
 .text.arsdk_cmd_itf_set_osdata
                0x000000000003b2f0       0x85 /home/zxli/code/parrot-groundsdk/out/olympe-linux/build/libarsdk/obj/libarsdk/src/cmd_itf/arsdk_cmd_itf.c.o
                0x000000000003b2f0                arsdk_cmd_itf_set_osdata
 *fill*         0x000000000003b375        0xb 
 .text.arsdk_cmd_itf_get_osdata
                0x000000000003b380       0x13 /home/zxli/code/parrot-groundsdk/out/olympe-linux/build/libarsdk/obj/libarsdk/src/cmd_itf/arsdk_cmd_itf.c.o
                0x000000000003b380                arsdk_cmd_itf_get_osdata
 *fill*         0x000000000003b393        0xd 
 .text.arsdk_cmd_itf_stop
                0x000000000003b3a0       0xa5 /home/zxli/code/parrot-groundsdk/out/olympe-linux/build/libarsdk/obj/libarsdk/src/cmd_itf/arsdk_cmd_itf.c.o
                0x000000000003b3a0                arsdk_cmd_itf_stop
 *fill*         0x000000000003b445        0xb 
 .text.arsdk_cmd_itf_send
                0x000000000003b450       0xa5 /home/zxli/code/parrot-groundsdk/out/olympe-linux/build/libarsdk/obj/libarsdk/src/cmd_itf/arsdk_cmd_itf.c.o
                0x000000000003b450                arsdk_cmd_itf_send
 *fill*         0x000000000003b4f5        0xb 
 .text.arsdk_cmd_itf_recv_data
                0x000000000003b500       0xa5 /home/zxli/code/parrot-groundsdk/out/olympe-linux/build/libarsdk/obj/libarsdk/src/cmd_itf/arsdk_cmd_itf.c.o
                0x000000000003b500                arsdk_cmd_itf_recv_data
 *fill*         0x000000000003b5a5        0xb 
 .text.arsdk_arg_type_str
                0x000000000003b5b0       0xe8 /home/zxli/code/parrot-groundsdk/out/olympe-linux/build/libarsdk/obj/libarsdk/src/cmd_itf/arsdk_cmd_itf.c.o
                0x000000000003b5b0                arsdk_arg_type_str
 *fill*         0x000000000003b698        0x8 
 .text.link_quality_timer_cb
                0x000000000003b6a0       0xfd /home/zxli/code/parrot-groundsdk/out/olympe-linux/build/libarsdk/obj/libarsdk/src/cmd_itf/arsdk_cmd_itf1.c.o
 *fill*         0x000000000003b79d        0x3 
 .text.entry_init
                0x000000000003b7a0       0x9e /home/zxli/code/parrot-groundsdk/out/olympe-linux/build/libarsdk/obj/libarsdk/src/cmd_itf/arsdk_cmd_itf1.c.o
 *fill*         0x000000000003b83e        0x2 
 .text.entry_clear
                0x000000000003b840       0x30 /home/zxli/code/parrot-groundsdk/out/olympe-linux/build/libarsdk/obj/libarsdk/src/cmd_itf/arsdk_cmd_itf1.c.o
 .text.queue_pop
                0x000000000003b870       0x33 /home/zxli/code/parrot-groundsdk/out/olympe-linux/build/libarsdk/obj/libarsdk/src/cmd_itf/arsdk_cmd_itf1.c.o
 *fill*         0x000000000003b8a3        0xd 
 .text.recv_ack.isra.6
                0x000000000003b8b0      0x2ec /home/zxli/code/parrot-groundsdk/out/olympe-linux/build/libarsdk/obj/libarsdk/src/cmd_itf/arsdk_cmd_itf1.c.o
 *fill*         0x000000000003bb9c        0x4 
 .text.check_tx_queues
                0x000000000003bba0      0x489 /home/zxli/code/parrot-groundsdk/out/olympe-linux/build/libarsdk/obj/libarsdk/src/cmd_itf/arsdk_cmd_itf1.c.o
 *fill*         0x000000000003c029        0x7 
 .text.timer_cb
                0x000000000003c030        0x8 /home/zxli/code/parrot-groundsdk/out/olympe-linux/build/libarsdk/obj/libarsdk/src/cmd_itf/arsdk_cmd_itf1.c.o
 *fill*         0x000000000003c038        0x8 
 .text.arsdk_cmd_itf1_stop
                0x000000000003c040      0x14e /home/zxli/code/parrot-groundsdk/out/olympe-linux/build/libarsdk/obj/libarsdk/src/cmd_itf/arsdk_cmd_itf1.c.o
                0x000000000003c040                arsdk_cmd_itf1_stop
 *fill*         0x000000000003c18e        0x2 
 .text.arsdk_cmd_itf1_send
                0x000000000003c190      0x4ff /home/zxli/code/parrot-groundsdk/out/olympe-linux/build/libarsdk/obj/libarsdk/src/cmd_itf/arsdk_cmd_itf1.c.o
                0x000000000003c190                arsdk_cmd_itf1_send
 *fill*         0x000000000003c68f        0x1 
 .text.arsdk_cmd_itf1_recv_data
                0x000000000003c690      0x3f8 /home/zxli/code/parrot-groundsdk/out/olympe-linux/build/libarsdk/obj/libarsdk/src/cmd_itf/arsdk_cmd_itf1.c.o
                0x000000000003c690                arsdk_cmd_itf1_recv_data
 *fill*         0x000000000003ca88        0x8 
 .text.arsdk_cmd_itf1_destroy
                0x000000000003ca90      0x1dd /home/zxli/code/parrot-groundsdk/out/olympe-linux/build/libarsdk/obj/libarsdk/src/cmd_itf/arsdk_cmd_itf1.c.o
                0x000000000003ca90                arsdk_cmd_itf1_destroy
 *fill*         0x000000000003cc6d        0x3 
 .text.arsdk_cmd_itf1_new
                0x000000000003cc70      0x471 /home/zxli/code/parrot-groundsdk/out/olympe-linux/build/libarsdk/obj/libarsdk/src/cmd_itf/arsdk_cmd_itf1.c.o
                0x000000000003cc70                arsdk_cmd_itf1_new
 *fill*         0x000000000003d0e1        0xf 
 .text.link_quality_timer_cb
                0x000000000003d0f0       0xfd /home/zxli/code/parrot-groundsdk/out/olympe-linux/build/libarsdk/obj/libarsdk/src/cmd_itf/arsdk_cmd_itf2.c.o
 *fill*         0x000000000003d1ed        0x3 
 .text.unpack_cmds
                0x000000000003d1f0      0x387 /home/zxli/code/parrot-groundsdk/out/olympe-linux/build/libarsdk/obj/libarsdk/src/cmd_itf/arsdk_cmd_itf2.c.o
 *fill*         0x000000000003d577        0x9 
 .text.entry_clear
                0x000000000003d580       0x28 /home/zxli/code/parrot-groundsdk/out/olympe-linux/build/libarsdk/obj/libarsdk/src/cmd_itf/arsdk_cmd_itf2.c.o
 *fill*         0x000000000003d5a8        0x8 
 .text.queue_pop
                0x000000000003d5b0       0x33 /home/zxli/code/parrot-groundsdk/out/olympe-linux/build/libarsdk/obj/libarsdk/src/cmd_itf/arsdk_cmd_itf2.c.o
 *fill*         0x000000000003d5e3        0xd 
 .text.check_tx_queues
                0x000000000003d5f0      0x55b /home/zxli/code/parrot-groundsdk/out/olympe-linux/build/libarsdk/obj/libarsdk/src/cmd_itf/arsdk_cmd_itf2.c.o
 *fill*         0x000000000003db4b        0x5 
 .text.timer_cb
                0x000000000003db50        0x8 /home/zxli/code/parrot-groundsdk/out/olympe-linux/build/libarsdk/obj/libarsdk/src/cmd_itf/arsdk_cmd_itf2.c.o
 *fill*         0x000000000003db58        0x8 
 .text.arsdk_cmd_itf2_stop
                0x000000000003db60      0x14e /home/zxli/code/parrot-groundsdk/out/olympe-linux/build/libarsdk/obj/libarsdk/src/cmd_itf/arsdk_cmd_itf2.c.o
                0x000000000003db60                arsdk_cmd_itf2_stop
 *fill*         0x000000000003dcae        0x2 
 .text.arsdk_cmd_itf2_send
                0x000000000003dcb0      0x42b /home/zxli/code/parrot-groundsdk/out/olympe-linux/build/libarsdk/obj/libarsdk/src/cmd_itf/arsdk_cmd_itf2.c.o
                0x000000000003dcb0                arsdk_cmd_itf2_send
 *fill*         0x000000000003e0db        0x5 
 .text.arsdk_cmd_itf2_recv_data
                0x000000000003e0e0      0x6aa /home/zxli/code/parrot-groundsdk/out/olympe-linux/build/libarsdk/obj/libarsdk/src/cmd_itf/arsdk_cmd_itf2.c.o
                0x000000000003e0e0                arsdk_cmd_itf2_recv_data
 *fill*         0x000000000003e78a        0x6 
 .text.arsdk_cmd_itf2_destroy
                0x000000000003e790      0x1d5 /home/zxli/code/parrot-groundsdk/out/olympe-linux/build/libarsdk/obj/libarsdk/src/cmd_itf/arsdk_cmd_itf2.c.o
                0x000000000003e790                arsdk_cmd_itf2_destroy
 *fill*         0x000000000003e965        0xb 
 .text.arsdk_cmd_itf2_new
                0x000000000003e970      0x473 /home/zxli/code/parrot-groundsdk/out/olympe-linux/build/libarsdk/obj/libarsdk/src/cmd_itf/arsdk_cmd_itf2.c.o
                0x000000000003e970                arsdk_cmd_itf2_new
 *fill*         0x000000000003ede3        0xd 
 .text.link_quality_timer_cb
                0x000000000003edf0       0xfd /home/zxli/code/parrot-groundsdk/out/olympe-linux/build/libarsdk/obj/libarsdk/src/cmd_itf/arsdk_cmd_itf3.c.o
 *fill*         0x000000000003eeed        0x3 
 .text.unpack_cmds
                0x000000000003eef0      0x4f8 /home/zxli/code/parrot-groundsdk/out/olympe-linux/build/libarsdk/obj/libarsdk/src/cmd_itf/arsdk_cmd_itf3.c.o
 *fill*         0x000000000003f3e8        0x8 
 .text.entry_clear
                0x000000000003f3f0       0x28 /home/zxli/code/parrot-groundsdk/out/olympe-linux/build/libarsdk/obj/libarsdk/src/cmd_itf/arsdk_cmd_itf3.c.o
 *fill*         0x000000000003f418        0x8 
 .text.queue_pop
                0x000000000003f420       0x33 /home/zxli/code/parrot-groundsdk/out/olympe-linux/build/libarsdk/obj/libarsdk/src/cmd_itf/arsdk_cmd_itf3.c.o
 *fill*         0x000000000003f453        0xd 
 .text.check_tx_queues
                0x000000000003f460      0x5fd /home/zxli/code/parrot-groundsdk/out/olympe-linux/build/libarsdk/obj/libarsdk/src/cmd_itf/arsdk_cmd_itf3.c.o
 *fill*         0x000000000003fa5d        0x3 
 .text.timer_cb
                0x000000000003fa60        0x8 /home/zxli/code/parrot-groundsdk/out/olympe-linux/build/libarsdk/obj/libarsdk/src/cmd_itf/arsdk_cmd_itf3.c.o
 *fill*         0x000000000003fa68        0x8 
 .text.arsdk_cmd_itf3_stop
                0x000000000003fa70      0x14e /home/zxli/code/parrot-groundsdk/out/olympe-linux/build/libarsdk/obj/libarsdk/src/cmd_itf/arsdk_cmd_itf3.c.o
                0x000000000003fa70                arsdk_cmd_itf3_stop
 *fill*         0x000000000003fbbe        0x2 
 .text.arsdk_cmd_itf3_send
                0x000000000003fbc0      0x42b /home/zxli/code/parrot-groundsdk/out/olympe-linux/build/libarsdk/obj/libarsdk/src/cmd_itf/arsdk_cmd_itf3.c.o
                0x000000000003fbc0                arsdk_cmd_itf3_send
 *fill*         0x000000000003ffeb        0x5 
 .text.arsdk_cmd_itf3_recv_data
                0x000000000003fff0      0x6c5 /home/zxli/code/parrot-groundsdk/out/olympe-linux/build/libarsdk/obj/libarsdk/src/cmd_itf/arsdk_cmd_itf3.c.o
                0x000000000003fff0                arsdk_cmd_itf3_recv_data
 *fill*         0x00000000000406b5        0xb 
 .text.arsdk_cmd_itf3_destroy
                0x00000000000406c0      0x1d5 /home/zxli/code/parrot-groundsdk/out/olympe-linux/build/libarsdk/obj/libarsdk/src/cmd_itf/arsdk_cmd_itf3.c.o
                0x00000000000406c0                arsdk_cmd_itf3_destroy
 *fill*         0x0000000000040895        0xb 
 .text.arsdk_cmd_itf3_new
                0x00000000000408a0      0x473 /home/zxli/code/parrot-groundsdk/out/olympe-linux/build/libarsdk/obj/libarsdk/src/cmd_itf/arsdk_cmd_itf3.c.o
                0x00000000000408a0                arsdk_cmd_itf3_new
 *fill*         0x0000000000040d13        0xd 
 .text.decoder_read
                0x0000000000040d20       0xb6 /home/zxli/code/parrot-groundsdk/out/olympe-linux/build/libarsdk/obj/libarsdk/src/arsdk_decoder.c.o
 *fill*         0x0000000000040dd6        0xa 
 .text.decoder_read_binary
                0x0000000000040de0       0x7c /home/zxli/code/parrot-groundsdk/out/olympe-linux/build/libarsdk/obj/libarsdk/src/arsdk_decoder.c.o
 *fill*         0x0000000000040e5c        0x4 
 .text.fmt_append
                0x0000000000040e60       0xe6 /home/zxli/code/parrot-groundsdk/out/olympe-linux/build/libarsdk/obj/libarsdk/src/arsdk_decoder.c.o
 *fill*         0x0000000000040f46        0xa 
 .text.fmt_append_bitfield
                0x0000000000040f50      0x11d /home/zxli/code/parrot-groundsdk/out/olympe-linux/build/libarsdk/obj/libarsdk/src/arsdk_decoder.c.o
 *fill*         0x000000000004106d        0x3 
 .text.decoder_read_cstr
                0x0000000000041070       0xa4 /home/zxli/code/parrot-groundsdk/out/olympe-linux/build/libarsdk/obj/libarsdk/src/arsdk_decoder.c.o
 *fill*         0x0000000000041114        0xc 
 .text.arsdk_cmd_dec
                0x0000000000041120      0x7ab /home/zxli/code/parrot-groundsdk/out/olympe-linux/build/libarsdk/obj/libarsdk/src/arsdk_decoder.c.o
                0x0000000000041120                arsdk_cmd_dec
 *fill*         0x00000000000418cb        0x5 
 .text.arsdk_cmd_dec_header
                0x00000000000418d0      0x1b2 /home/zxli/code/parrot-groundsdk/out/olympe-linux/build/libarsdk/obj/libarsdk/src/arsdk_decoder.c.o
                0x00000000000418d0                arsdk_cmd_dec_header
 *fill*         0x0000000000041a82        0xe 
 .text.arsdk_cmd_find_desc
                0x0000000000041a90       0x86 /home/zxli/code/parrot-groundsdk/out/olympe-linux/build/libarsdk/obj/libarsdk/src/arsdk_decoder.c.o
                0x0000000000041a90                arsdk_cmd_find_desc
 *fill*         0x0000000000041b16        0xa 
 .text.arsdk_cmd_get_values
                0x0000000000041b20      0x466 /home/zxli/code/parrot-groundsdk/out/olympe-linux/build/libarsdk/obj/libarsdk/src/arsdk_decoder.c.o
                0x0000000000041b20                arsdk_cmd_get_values
 *fill*         0x0000000000041f86        0xa 
 .text.arsdk_cmd_fmt
                0x0000000000041f90      0x82a /home/zxli/code/parrot-groundsdk/out/olympe-linux/build/libarsdk/obj/libarsdk/src/arsdk_decoder.c.o
                0x0000000000041f90                arsdk_cmd_fmt
 *fill*         0x00000000000427ba        0x6 
 .text.arsdk_mngr_new
                0x00000000000427c0      0x137 /home/zxli/code/parrot-groundsdk/out/olympe-linux/build/libarsdk/obj/libarsdk/src/arsdk_mngr.c.o
                0x00000000000427c0                arsdk_mngr_new
 *fill*         0x00000000000428f7        0x9 
 .text.arsdk_mngr_set_peer_cbs
                0x0000000000042900      0x19d /home/zxli/code/parrot-groundsdk/out/olympe-linux/build/libarsdk/obj/libarsdk/src/arsdk_mngr.c.o
                0x0000000000042900                arsdk_mngr_set_peer_cbs
 *fill*         0x0000000000042a9d        0x3 
 .text.arsdk_mngr_get_loop
                0x0000000000042aa0       0x13 /home/zxli/code/parrot-groundsdk/out/olympe-linux/build/libarsdk/obj/libarsdk/src/arsdk_mngr.c.o
                0x0000000000042aa0                arsdk_mngr_get_loop
 *fill*         0x0000000000042ab3        0xd 
 .text.arsdk_mngr_next_peer
                0x0000000000042ac0       0x33 /home/zxli/code/parrot-groundsdk/out/olympe-linux/build/libarsdk/obj/libarsdk/src/arsdk_mngr.c.o
                0x0000000000042ac0                arsdk_mngr_next_peer
 *fill*         0x0000000000042af3        0xd 
 .text.arsdk_mngr_create_peer
                0x0000000000042b00      0x2fb /home/zxli/code/parrot-groundsdk/out/olympe-linux/build/libarsdk/obj/libarsdk/src/arsdk_mngr.c.o
                0x0000000000042b00                arsdk_mngr_create_peer
 *fill*         0x0000000000042dfb        0x5 
 .text.arsdk_mngr_destroy_peer
                0x0000000000042e00      0x1b4 /home/zxli/code/parrot-groundsdk/out/olympe-linux/build/libarsdk/obj/libarsdk/src/arsdk_mngr.c.o
                0x0000000000042e00                arsdk_mngr_destroy_peer
 *fill*         0x0000000000042fb4        0xc 
 .text.arsdk_mngr_register_backend
                0x0000000000042fc0      0x194 /home/zxli/code/parrot-groundsdk/out/olympe-linux/build/libarsdk/obj/libarsdk/src/arsdk_mngr.c.o
                0x0000000000042fc0                arsdk_mngr_register_backend
 *fill*         0x0000000000043154        0xc 
 .text.arsdk_mngr_unregister_backend
                0x0000000000043160      0x1c4 /home/zxli/code/parrot-groundsdk/out/olympe-linux/build/libarsdk/obj/libarsdk/src/arsdk_mngr.c.o
                0x0000000000043160                arsdk_mngr_unregister_backend
 *fill*         0x0000000000043324        0xc 
 .text.arsdk_mngr_destroy
                0x0000000000043330       0xae /home/zxli/code/parrot-groundsdk/out/olympe-linux/build/libarsdk/obj/libarsdk/src/arsdk_mngr.c.o
                0x0000000000043330                arsdk_mngr_destroy
 *fill*         0x00000000000433de        0x2 
 .text.arsdk_mngr_get_peer
                0x00000000000433e0       0x4a /home/zxli/code/parrot-groundsdk/out/olympe-linux/build/libarsdk/obj/libarsdk/src/arsdk_mngr.c.o
                0x00000000000433e0                arsdk_mngr_get_peer
 *fill*         0x000000000004342a        0x6 
 .text.encoder_write
                0x0000000000043430       0x6f /home/zxli/code/parrot-groundsdk/out/olympe-linux/build/libarsdk/obj/libarsdk/src/arsdk_encoder.c.o
 *fill*         0x000000000004349f        0x1 
 .text.cmd_encv_internal
                0x00000000000434a0      0x830 /home/zxli/code/parrot-groundsdk/out/olympe-linux/build/libarsdk/obj/libarsdk/src/arsdk_encoder.c.o
 .text.cmd_enc_internal
                0x0000000000043cd0       0xa7 /home/zxli/code/parrot-groundsdk/out/olympe-linux/build/libarsdk/obj/libarsdk/src/arsdk_encoder.c.o
 *fill*         0x0000000000043d77        0x9 
 .text.arsdk_cmd_enc_argv
                0x0000000000043d80        0x7 /home/zxli/code/parrot-groundsdk/out/olympe-linux/build/libarsdk/obj/libarsdk/src/arsdk_encoder.c.o
                0x0000000000043d80                arsdk_cmd_enc_argv
 *fill*         0x0000000000043d87        0x9 
 .text.arsdk_cmd_enc
                0x0000000000043d90       0xb5 /home/zxli/code/parrot-groundsdk/out/olympe-linux/build/libarsdk/obj/libarsdk/src/arsdk_encoder.c.o
                0x0000000000043d90                arsdk_cmd_enc
 *fill*         0x0000000000043e45        0xb 
 .text.link_status
                0x0000000000043e50       0x1d /home/zxli/code/parrot-groundsdk/out/olympe-linux/build/libarsdk/obj/libarsdk/src/arsdk_peer.c.o
 *fill*         0x0000000000043e6d        0x3 
 .text.log_cb   0x0000000000043e70       0x2a /home/zxli/code/parrot-groundsdk/out/olympe-linux/build/libarsdk/obj/libarsdk/src/arsdk_peer.c.o
 *fill*         0x0000000000043e9a        0x6 
 .text.cleanup_connection
                0x0000000000043ea0       0x55 /home/zxli/code/parrot-groundsdk/out/olympe-linux/build/libarsdk/obj/libarsdk/src/arsdk_peer.c.o
 *fill*         0x0000000000043ef5        0xb 
 .text.canceled
                0x0000000000043f00       0x42 /home/zxli/code/parrot-groundsdk/out/olympe-linux/build/libarsdk/obj/libarsdk/src/arsdk_peer.c.o
 *fill*         0x0000000000043f42        0xe 
 .text.disconnected
                0x0000000000043f50       0x32 /home/zxli/code/parrot-groundsdk/out/olympe-linux/build/libarsdk/obj/libarsdk/src/arsdk_peer.c.o
 *fill*         0x0000000000043f82        0xe 
 .text.connected
                0x0000000000043f90      0x104 /home/zxli/code/parrot-groundsdk/out/olympe-linux/build/libarsdk/obj/libarsdk/src/arsdk_peer.c.o
 *fill*         0x0000000000044094        0xc 
 .text.cmd_itf_dispose
                0x00000000000440a0       0xca /home/zxli/code/parrot-groundsdk/out/olympe-linux/build/libarsdk/obj/libarsdk/src/arsdk_peer.c.o
 *fill*         0x000000000004416a        0x6 
 .text.recv_data
                0x0000000000044170       0x87 /home/zxli/code/parrot-groundsdk/out/olympe-linux/build/libarsdk/obj/libarsdk/src/arsdk_peer.c.o
 *fill*         0x00000000000441f7        0x9 
 .text.arsdk_peer_destroy
                0x0000000000044200       0x97 /home/zxli/code/parrot-groundsdk/out/olympe-linux/build/libarsdk/obj/libarsdk/src/arsdk_peer.c.o
                0x0000000000044200                arsdk_peer_destroy
 *fill*         0x0000000000044297        0x9 
 .text.arsdk_peer_new
                0x00000000000442a0      0x294 /home/zxli/code/parrot-groundsdk/out/olympe-linux/build/libarsdk/obj/libarsdk/src/arsdk_peer.c.o
                0x00000000000442a0                arsdk_peer_new
 *fill*         0x0000000000044534        0xc 
 .text.arsdk_peer_get_handle
                0x0000000000044540        0xd /home/zxli/code/parrot-groundsdk/out/olympe-linux/build/libarsdk/obj/libarsdk/src/arsdk_peer.c.o
                0x0000000000044540                arsdk_peer_get_handle
 *fill*         0x000000000004454d        0x3 
 .text.arsdk_peer_set_osdata
                0x0000000000044550       0x85 /home/zxli/code/parrot-groundsdk/out/olympe-linux/build/libarsdk/obj/libarsdk/src/arsdk_peer.c.o
                0x0000000000044550                arsdk_peer_set_osdata
 *fill*         0x00000000000445d5        0xb 
 .text.arsdk_peer_get_osdata
                0x00000000000445e0       0x13 /home/zxli/code/parrot-groundsdk/out/olympe-linux/build/libarsdk/obj/libarsdk/src/arsdk_peer.c.o
                0x00000000000445e0                arsdk_peer_get_osdata
 *fill*         0x00000000000445f3        0xd 
 .text.arsdk_peer_get_info
                0x0000000000044600       0xdd /home/zxli/code/parrot-groundsdk/out/olympe-linux/build/libarsdk/obj/libarsdk/src/arsdk_peer.c.o
                0x0000000000044600                arsdk_peer_get_info
 *fill*         0x00000000000446dd        0x3 
 .text.arsdk_peer_get_backend
                0x00000000000446e0       0x13 /home/zxli/code/parrot-groundsdk/out/olympe-linux/build/libarsdk/obj/libarsdk/src/arsdk_peer.c.o
                0x00000000000446e0                arsdk_peer_get_backend
 *fill*         0x00000000000446f3        0xd 
 .text.arsdk_peer_cancel
                0x0000000000044700      0x158 /home/zxli/code/parrot-groundsdk/out/olympe-linux/build/libarsdk/obj/libarsdk/src/arsdk_peer.c.o
                0x0000000000044700                arsdk_peer_cancel
 *fill*         0x0000000000044858        0x8 
 .text.arsdk_peer_accept
                0x0000000000044860      0x356 /home/zxli/code/parrot-groundsdk/out/olympe-linux/build/libarsdk/obj/libarsdk/src/arsdk_peer.c.o
                0x0000000000044860                arsdk_peer_accept
 *fill*         0x0000000000044bb6        0xa 
 .text.arsdk_peer_reject
                0x0000000000044bc0       0xb4 /home/zxli/code/parrot-groundsdk/out/olympe-linux/build/libarsdk/obj/libarsdk/src/arsdk_peer.c.o
                0x0000000000044bc0                arsdk_peer_reject
 *fill*         0x0000000000044c74        0xc 
 .text.arsdk_peer_disconnect
                0x0000000000044c80       0xb4 /home/zxli/code/parrot-groundsdk/out/olympe-linux/build/libarsdk/obj/libarsdk/src/arsdk_peer.c.o
                0x0000000000044c80                arsdk_peer_disconnect
 *fill*         0x0000000000044d34        0xc 
 .text.arsdk_peer_create_cmd_itf
                0x0000000000044d40      0x21c /home/zxli/code/parrot-groundsdk/out/olympe-linux/build/libarsdk/obj/libarsdk/src/arsdk_peer.c.o
                0x0000000000044d40                arsdk_peer_create_cmd_itf
 *fill*         0x0000000000044f5c        0x4 
 .text.arsdk_peer_get_cmd_itf
                0x0000000000044f60       0x13 /home/zxli/code/parrot-groundsdk/out/olympe-linux/build/libarsdk/obj/libarsdk/src/arsdk_peer.c.o
                0x0000000000044f60                arsdk_peer_get_cmd_itf
 *fill*         0x0000000000044f73        0xd 
 .text.notify_link_status_idle
                0x0000000000044f80       0x1a /home/zxli/code/parrot-groundsdk/out/olympe-linux/build/libarsdk/obj/libarsdk/src/arsdk_transport.c.o
 *fill*         0x0000000000044f9a        0x6 
 .text.restart_ping
                0x0000000000044fa0       0xa7 /home/zxli/code/parrot-groundsdk/out/olympe-linux/build/libarsdk/obj/libarsdk/src/arsdk_transport.c.o
 *fill*         0x0000000000045047        0x9 
 .text.arsdk_transport_new
                0x0000000000045050      0x393 /home/zxli/code/parrot-groundsdk/out/olympe-linux/build/libarsdk/obj/libarsdk/src/arsdk_transport.c.o
                0x0000000000045050                arsdk_transport_new
 *fill*         0x00000000000453e3        0xd 
 .text.arsdk_transport_destroy
                0x00000000000453f0       0xad /home/zxli/code/parrot-groundsdk/out/olympe-linux/build/libarsdk/obj/libarsdk/src/arsdk_transport.c.o
                0x00000000000453f0                arsdk_transport_destroy
 *fill*         0x000000000004549d        0x3 
 .text.arsdk_transport_get_child
                0x00000000000454a0       0x13 /home/zxli/code/parrot-groundsdk/out/olympe-linux/build/libarsdk/obj/libarsdk/src/arsdk_transport.c.o
                0x00000000000454a0                arsdk_transport_get_child
 *fill*         0x00000000000454b3        0xd 
 .text.arsdk_transport_get_loop
                0x00000000000454c0       0x13 /home/zxli/code/parrot-groundsdk/out/olympe-linux/build/libarsdk/obj/libarsdk/src/arsdk_transport.c.o
                0x00000000000454c0                arsdk_transport_get_loop
 *fill*         0x00000000000454d3        0xd 
 .text.arsdk_transport_start
                0x00000000000454e0      0x227 /home/zxli/code/parrot-groundsdk/out/olympe-linux/build/libarsdk/obj/libarsdk/src/arsdk_transport.c.o
                0x00000000000454e0                arsdk_transport_start
 *fill*         0x0000000000045707        0x9 
 .text.arsdk_transport_stop
                0x0000000000045710       0xdf /home/zxli/code/parrot-groundsdk/out/olympe-linux/build/libarsdk/obj/libarsdk/src/arsdk_transport.c.o
                0x0000000000045710                arsdk_transport_stop
 *fill*         0x00000000000457ef        0x1 
 .text.arsdk_transport_send_data
                0x00000000000457f0       0x9c /home/zxli/code/parrot-groundsdk/out/olympe-linux/build/libarsdk/obj/libarsdk/src/arsdk_transport.c.o
                0x00000000000457f0                arsdk_transport_send_data
 *fill*         0x000000000004588c        0x4 
 .text.arsdk_transport_set_link_status
                0x0000000000045890      0x10d /home/zxli/code/parrot-groundsdk/out/olympe-linux/build/libarsdk/obj/libarsdk/src/arsdk_transport.c.o
                0x0000000000045890                arsdk_transport_set_link_status
 *fill*         0x000000000004599d        0x3 
 .text.timer_cb
                0x00000000000459a0      0x2ad /home/zxli/code/parrot-groundsdk/out/olympe-linux/build/libarsdk/obj/libarsdk/src/arsdk_transport.c.o
 *fill*         0x0000000000045c4d        0x3 
 .text.arsdk_transport_recv_data
                0x0000000000045c50      0x456 /home/zxli/code/parrot-groundsdk/out/olympe-linux/build/libarsdk/obj/libarsdk/src/arsdk_transport.c.o
                0x0000000000045c50                arsdk_transport_recv_data
 *fill*         0x00000000000460a6        0xa 
 .text.arsdk_transport_get_link_status
                0x00000000000460b0        0xc /home/zxli/code/parrot-groundsdk/out/olympe-linux/build/libarsdk/obj/libarsdk/src/arsdk_transport.c.o
                0x00000000000460b0                arsdk_transport_get_link_status
 *fill*         0x00000000000460bc        0x4 
 .text.arsdk_transport_log_cmd
                0x00000000000460c0       0x32 /home/zxli/code/parrot-groundsdk/out/olympe-linux/build/libarsdk/obj/libarsdk/src/arsdk_transport.c.o
                0x00000000000460c0                arsdk_transport_log_cmd
 *fill*         0x00000000000460f2        0xe 
 .text.arsdk_transport_get_proto_v
                0x0000000000046100       0x9d /home/zxli/code/parrot-groundsdk/out/olympe-linux/build/libarsdk/obj/libarsdk/src/arsdk_transport.c.o
                0x0000000000046100                arsdk_transport_get_proto_v
 *fill*         0x000000000004619d        0x3 
 .text.peer_conn_destroy
                0x00000000000461a0      0x15f /home/zxli/code/parrot-groundsdk/out/olympe-linux/build/libarsdk/obj/libarsdk/src/net/arsdk_backend_net.c.o
 *fill*         0x00000000000462ff        0x1 
 .text.backend_net_event_cb
                0x0000000000046300      0x20c /home/zxli/code/parrot-groundsdk/out/olympe-linux/build/libarsdk/obj/libarsdk/src/net/arsdk_backend_net.c.o
 *fill*         0x000000000004650c        0x4 
 .text.peer_conn_send_json
                0x0000000000046510      0x177 /home/zxli/code/parrot-groundsdk/out/olympe-linux/build/libarsdk/obj/libarsdk/src/net/arsdk_backend_net.c.o
 *fill*         0x0000000000046687        0x9 
 .text.arsdk_backend_net_reject_peer_conn
                0x0000000000046690      0x248 /home/zxli/code/parrot-groundsdk/out/olympe-linux/build/libarsdk/obj/libarsdk/src/net/arsdk_backend_net.c.o
 *fill*         0x00000000000468d8        0x8 
 .text.arsdk_backend_net_stop_peer_conn
                0x00000000000468e0      0x258 /home/zxli/code/parrot-groundsdk/out/olympe-linux/build/libarsdk/obj/libarsdk/src/net/arsdk_backend_net.c.o
 *fill*         0x0000000000046b38        0x8 
 .text.arsdk_backend_net_socket_cb
                0x0000000000046b40       0xa4 /home/zxli/code/parrot-groundsdk/out/olympe-linux/build/libarsdk/obj/libarsdk/src/net/arsdk_backend_net.c.o
 *fill*         0x0000000000046be4        0xc 
 .text.backend_net_pomp_socket_cb
                0x0000000000046bf0       0x8c /home/zxli/code/parrot-groundsdk/out/olympe-linux/build/libarsdk/obj/libarsdk/src/net/arsdk_backend_net.c.o
 *fill*         0x0000000000046c7c        0x4 
 .text.backend_net_socket_cb
                0x0000000000046c80       0x8c /home/zxli/code/parrot-groundsdk/out/olympe-linux/build/libarsdk/obj/libarsdk/src/net/arsdk_backend_net.c.o
 *fill*         0x0000000000046d0c        0x4 
 .text.arsdk_backend_net_accept_peer_conn
                0x0000000000046d10      0x5cc /home/zxli/code/parrot-groundsdk/out/olympe-linux/build/libarsdk/obj/libarsdk/src/net/arsdk_backend_net.c.o
 *fill*         0x00000000000472dc        0x4 
 .text.backend_net_raw_cb
                0x00000000000472e0      0x6c9 /home/zxli/code/parrot-groundsdk/out/olympe-linux/build/libarsdk/obj/libarsdk/src/net/arsdk_backend_net.c.o
 *fill*         0x00000000000479a9        0x7 
 .text.arsdk_backend_net_start_listen
                0x00000000000479b0      0x362 /home/zxli/code/parrot-groundsdk/out/olympe-linux/build/libarsdk/obj/libarsdk/src/net/arsdk_backend_net.c.o
                0x00000000000479b0                arsdk_backend_net_start_listen
 *fill*         0x0000000000047d12        0xe 
 .text.arsdk_backend_net_stop_listen
                0x0000000000047d20       0xcc /home/zxli/code/parrot-groundsdk/out/olympe-linux/build/libarsdk/obj/libarsdk/src/net/arsdk_backend_net.c.o
                0x0000000000047d20                arsdk_backend_net_stop_listen
 *fill*         0x0000000000047dec        0x4 
 .text.arsdk_backend_net_new
                0x0000000000047df0      0x279 /home/zxli/code/parrot-groundsdk/out/olympe-linux/build/libarsdk/obj/libarsdk/src/net/arsdk_backend_net.c.o
                0x0000000000047df0                arsdk_backend_net_new
 *fill*         0x0000000000048069        0x7 
 .text.arsdk_backend_net_destroy
                0x0000000000048070       0x9c /home/zxli/code/parrot-groundsdk/out/olympe-linux/build/libarsdk/obj/libarsdk/src/net/arsdk_backend_net.c.o
                0x0000000000048070                arsdk_backend_net_destroy
 *fill*         0x000000000004810c        0x4 
 .text.arsdk_backend_net_set_socket_cb
                0x0000000000048110       0x84 /home/zxli/code/parrot-groundsdk/out/olympe-linux/build/libarsdk/obj/libarsdk/src/net/arsdk_backend_net.c.o
                0x0000000000048110                arsdk_backend_net_set_socket_cb
 *fill*         0x0000000000048194        0xc 
 .text.arsdk_backend_net_get_parent
                0x00000000000481a0       0x13 /home/zxli/code/parrot-groundsdk/out/olympe-linux/build/libarsdk/obj/libarsdk/src/net/arsdk_backend_net.c.o
                0x00000000000481a0                arsdk_backend_net_get_parent
 *fill*         0x00000000000481b3        0xd 
 .text.arsdk_publisher_avahi_new
                0x00000000000481c0      0x167 /home/zxli/code/parrot-groundsdk/out/olympe-linux/build/libarsdk/obj/libarsdk/src/net/arsdk_publisher_avahi.c.o
                0x00000000000481c0                arsdk_publisher_avahi_new
 *fill*         0x0000000000048327        0x9 
 .text.arsdk_publisher_avahi_destroy
                0x0000000000048330       0x8d /home/zxli/code/parrot-groundsdk/out/olympe-linux/build/libarsdk/obj/libarsdk/src/net/arsdk_publisher_avahi.c.o
                0x0000000000048330                arsdk_publisher_avahi_destroy
 *fill*         0x00000000000483bd        0x3 
 .text.arsdk_publisher_avahi_start
                0x00000000000483c0      0x25a /home/zxli/code/parrot-groundsdk/out/olympe-linux/build/libarsdk/obj/libarsdk/src/net/arsdk_publisher_avahi.c.o
                0x00000000000483c0                arsdk_publisher_avahi_start
 *fill*         0x000000000004861a        0x6 
 .text.arsdk_publisher_avahi_stop
                0x0000000000048620      0x100 /home/zxli/code/parrot-groundsdk/out/olympe-linux/build/libarsdk/obj/libarsdk/src/net/arsdk_publisher_avahi.c.o
                0x0000000000048620                arsdk_publisher_avahi_stop
 .text.raw_cb   0x0000000000048720        0x2 /home/zxli/code/parrot-groundsdk/out/olympe-linux/build/libarsdk/obj/libarsdk/src/net/arsdk_publisher_net.c.o
 *fill*         0x0000000000048722        0xe 
 .text.socket_cb
                0x0000000000048730       0xed /home/zxli/code/parrot-groundsdk/out/olympe-linux/build/libarsdk/obj/libarsdk/src/net/arsdk_publisher_net.c.o
 *fill*         0x000000000004881d        0x3 
 .text.event_cb
                0x0000000000048820       0x85 /home/zxli/code/parrot-groundsdk/out/olympe-linux/build/libarsdk/obj/libarsdk/src/net/arsdk_publisher_net.c.o
 *fill*         0x00000000000488a5        0xb 
 .text.get_ip_addr
                0x00000000000488b0      0x1c3 /home/zxli/code/parrot-groundsdk/out/olympe-linux/build/libarsdk/obj/libarsdk/src/net/arsdk_publisher_net.c.o
                0x00000000000488b0                get_ip_addr
 *fill*         0x0000000000048a73        0xd 
 .text.arsdk_publisher_net_destroy
                0x0000000000048a80       0x9d /home/zxli/code/parrot-groundsdk/out/olympe-linux/build/libarsdk/obj/libarsdk/src/net/arsdk_publisher_net.c.o
                0x0000000000048a80                arsdk_publisher_net_destroy
 *fill*         0x0000000000048b1d        0x3 
 .text.arsdk_publisher_net_new
                0x0000000000048b20      0x364 /home/zxli/code/parrot-groundsdk/out/olympe-linux/build/libarsdk/obj/libarsdk/src/net/arsdk_publisher_net.c.o
                0x0000000000048b20                arsdk_publisher_net_new
 *fill*         0x0000000000048e84        0xc 
 .text.arsdk_publisher_net_start
                0x0000000000048e90      0x2f6 /home/zxli/code/parrot-groundsdk/out/olympe-linux/build/libarsdk/obj/libarsdk/src/net/arsdk_publisher_net.c.o
                0x0000000000048e90                arsdk_publisher_net_start
 *fill*         0x0000000000049186        0xa 
 .text.arsdk_publisher_net_stop
                0x0000000000049190       0x9d /home/zxli/code/parrot-groundsdk/out/olympe-linux/build/libarsdk/obj/libarsdk/src/net/arsdk_publisher_net.c.o
                0x0000000000049190                arsdk_publisher_net_stop
 *fill*         0x000000000004922d        0x3 
 .text.arsdk_transport_net_get_proto_v
                0x0000000000049230       0x85 /home/zxli/code/parrot-groundsdk/out/olympe-linux/build/libarsdk/obj/libarsdk/src/net/arsdk_transport_net.c.o
 *fill*         0x00000000000492b5        0xb 
 .text.arsdk_transport_net_stop
                0x00000000000492c0       0xad /home/zxli/code/parrot-groundsdk/out/olympe-linux/build/libarsdk/obj/libarsdk/src/net/arsdk_transport_net.c.o
 *fill*         0x000000000004936d        0x3 
 .text.arsdk_transport_net_dispose
                0x0000000000049370       0xed /home/zxli/code/parrot-groundsdk/out/olympe-linux/build/libarsdk/obj/libarsdk/src/net/arsdk_transport_net.c.o
 *fill*         0x000000000004945d        0x3 
 .text.arsdk_transport_net_send_data
                0x0000000000049460      0x77c /home/zxli/code/parrot-groundsdk/out/olympe-linux/build/libarsdk/obj/libarsdk/src/net/arsdk_transport_net.c.o
 *fill*         0x0000000000049bdc        0x4 
 .text.data_fd_cb
                0x0000000000049be0      0x510 /home/zxli/code/parrot-groundsdk/out/olympe-linux/build/libarsdk/obj/libarsdk/src/net/arsdk_transport_net.c.o
 .text.arsdk_transport_net_start
                0x000000000004a0f0      0x29e /home/zxli/code/parrot-groundsdk/out/olympe-linux/build/libarsdk/obj/libarsdk/src/net/arsdk_transport_net.c.o
 *fill*         0x000000000004a38e        0x2 
 .text.arsdk_transport_net_new
                0x000000000004a390      0x988 /home/zxli/code/parrot-groundsdk/out/olympe-linux/build/libarsdk/obj/libarsdk/src/net/arsdk_transport_net.c.o
                0x000000000004a390                arsdk_transport_net_new
 *fill*         0x000000000004ad18        0x8 
 .text.arsdk_transport_net_get_parent
                0x000000000004ad20       0x13 /home/zxli/code/parrot-groundsdk/out/olympe-linux/build/libarsdk/obj/libarsdk/src/net/arsdk_transport_net.c.o
                0x000000000004ad20                arsdk_transport_net_get_parent
 *fill*         0x000000000004ad33        0xd 
 .text.arsdk_transport_net_get_cfg
                0x000000000004ad40       0xdd /home/zxli/code/parrot-groundsdk/out/olympe-linux/build/libarsdk/obj/libarsdk/src/net/arsdk_transport_net.c.o
                0x000000000004ad40                arsdk_transport_net_get_cfg
 *fill*         0x000000000004ae1d        0x3 
 .text.arsdk_transport_net_update_cfg
                0x000000000004ae20       0xdd /home/zxli/code/parrot-groundsdk/out/olympe-linux/build/libarsdk/obj/libarsdk/src/net/arsdk_transport_net.c.o
                0x000000000004ae20                arsdk_transport_net_update_cfg
 *fill*         0x000000000004aefd        0x3 
 .text.arsdk_transport_net_socket_cb
                0x000000000004af00       0x7e /home/zxli/code/parrot-groundsdk/out/olympe-linux/build/libarsdk/obj/libarsdk/src/net/arsdk_transport_net.c.o
                0x000000000004af00                arsdk_transport_net_socket_cb
 *fill*         0x000000000004af7e        0x2 
 .text.peer_conn_destroy
                0x000000000004af80      0x15f /home/zxli/code/parrot-groundsdk/out/olympe-linux/build/libarsdk/obj/libarsdk/src/mux/arsdk_backend_mux.c.o
 *fill*         0x000000000004b0df        0x1 
 .text.backend_mux_channel_cb
                0x000000000004b0e0      0x676 /home/zxli/code/parrot-groundsdk/out/olympe-linux/build/libarsdk/obj/libarsdk/src/mux/arsdk_backend_mux.c.o
 *fill*         0x000000000004b756        0xa 
 .text.backend_mux_write_msg.constprop.3
                0x000000000004b760      0x1ff /home/zxli/code/parrot-groundsdk/out/olympe-linux/build/libarsdk/obj/libarsdk/src/mux/arsdk_backend_mux.c.o
 *fill*         0x000000000004b95f        0x1 
 .text.arsdk_backend_mux_accept_peer_conn
                0x000000000004b960      0x5f6 /home/zxli/code/parrot-groundsdk/out/olympe-linux/build/libarsdk/obj/libarsdk/src/mux/arsdk_backend_mux.c.o
 *fill*         0x000000000004bf56        0xa 
 .text.arsdk_backend_mux_reject_peer_conn
                0x000000000004bf60      0x250 /home/zxli/code/parrot-groundsdk/out/olympe-linux/build/libarsdk/obj/libarsdk/src/mux/arsdk_backend_mux.c.o
 .text.arsdk_backend_mux_stop_peer_conn
                0x000000000004c1b0      0x258 /home/zxli/code/parrot-groundsdk/out/olympe-linux/build/libarsdk/obj/libarsdk/src/mux/arsdk_backend_mux.c.o
 *fill*         0x000000000004c408        0x8 
 .text.arsdk_backend_mux_start_listen
                0x000000000004c410      0x16c /home/zxli/code/parrot-groundsdk/out/olympe-linux/build/libarsdk/obj/libarsdk/src/mux/arsdk_backend_mux.c.o
                0x000000000004c410                arsdk_backend_mux_start_listen
 *fill*         0x000000000004c57c        0x4 
 .text.arsdk_backend_mux_stop_listen
                0x000000000004c580       0x26 /home/zxli/code/parrot-groundsdk/out/olympe-linux/build/libarsdk/obj/libarsdk/src/mux/arsdk_backend_mux.c.o
                0x000000000004c580                arsdk_backend_mux_stop_listen
 *fill*         0x000000000004c5a6        0xa 
 .text.arsdk_backend_mux_new
                0x000000000004c5b0      0x311 /home/zxli/code/parrot-groundsdk/out/olympe-linux/build/libarsdk/obj/libarsdk/src/mux/arsdk_backend_mux.c.o
                0x000000000004c5b0                arsdk_backend_mux_new
 *fill*         0x000000000004c8c1        0xf 
 .text.arsdk_backend_mux_destroy
                0x000000000004c8d0      0x13f /home/zxli/code/parrot-groundsdk/out/olympe-linux/build/libarsdk/obj/libarsdk/src/mux/arsdk_backend_mux.c.o
                0x000000000004c8d0                arsdk_backend_mux_destroy
 *fill*         0x000000000004ca0f        0x1 
 .text.arsdk_backend_mux_get_parent
                0x000000000004ca10       0x13 /home/zxli/code/parrot-groundsdk/out/olympe-linux/build/libarsdk/obj/libarsdk/src/mux/arsdk_backend_mux.c.o
                0x000000000004ca10                arsdk_backend_mux_get_parent
 *fill*         0x000000000004ca23        0xd 
 .text.arsdk_backend_mux_get_mux_ctx
                0x000000000004ca30       0x13 /home/zxli/code/parrot-groundsdk/out/olympe-linux/build/libarsdk/obj/libarsdk/src/mux/arsdk_backend_mux.c.o
                0x000000000004ca30                arsdk_backend_mux_get_mux_ctx
 *fill*         0x000000000004ca43        0xd 
 .text.publisher_mux_write_msg.constprop.4
                0x000000000004ca50      0x1f7 /home/zxli/code/parrot-groundsdk/out/olympe-linux/build/libarsdk/obj/libarsdk/src/mux/arsdk_publisher_mux.c.o
 *fill*         0x000000000004cc47        0x9 
 .text.publisher_mux_channel_cb
                0x000000000004cc50      0x178 /home/zxli/code/parrot-groundsdk/out/olympe-linux/build/libarsdk/obj/libarsdk/src/mux/arsdk_publisher_mux.c.o
 *fill*         0x000000000004cdc8        0x8 
 .text.arsdk_publisher_mux_destroy
                0x000000000004cdd0       0xbd /home/zxli/code/parrot-groundsdk/out/olympe-linux/build/libarsdk/obj/libarsdk/src/mux/arsdk_publisher_mux.c.o
                0x000000000004cdd0                arsdk_publisher_mux_destroy
 *fill*         0x000000000004ce8d        0x3 
 .text.arsdk_publisher_mux_new
                0x000000000004ce90      0x24a /home/zxli/code/parrot-groundsdk/out/olympe-linux/build/libarsdk/obj/libarsdk/src/mux/arsdk_publisher_mux.c.o
                0x000000000004ce90                arsdk_publisher_mux_new
 *fill*         0x000000000004d0da        0x6 
 .text.arsdk_publisher_mux_start
                0x000000000004d0e0      0x2ac /home/zxli/code/parrot-groundsdk/out/olympe-linux/build/libarsdk/obj/libarsdk/src/mux/arsdk_publisher_mux.c.o
                0x000000000004d0e0                arsdk_publisher_mux_start
 *fill*         0x000000000004d38c        0x4 
 .text.arsdk_publisher_mux_stop
                0x000000000004d390      0x158 /home/zxli/code/parrot-groundsdk/out/olympe-linux/build/libarsdk/obj/libarsdk/src/mux/arsdk_publisher_mux.c.o
                0x000000000004d390                arsdk_publisher_mux_stop
 *fill*         0x000000000004d4e8        0x8 
 .text.arsdk_transport_mux_send_data
                0x000000000004d4f0      0x69d /home/zxli/code/parrot-groundsdk/out/olympe-linux/build/libarsdk/obj/libarsdk/src/mux/arsdk_transport_mux.c.o
 *fill*         0x000000000004db8d        0x3 
 .text.arsdk_transport_mux_stop
                0x000000000004db90      0x118 /home/zxli/code/parrot-groundsdk/out/olympe-linux/build/libarsdk/obj/libarsdk/src/mux/arsdk_transport_mux.c.o
 *fill*         0x000000000004dca8        0x8 
 .text.arsdk_transport_mux_start
                0x000000000004dcb0      0x148 /home/zxli/code/parrot-groundsdk/out/olympe-linux/build/libarsdk/obj/libarsdk/src/mux/arsdk_transport_mux.c.o
 *fill*         0x000000000004ddf8        0x8 
 .text.arsdk_transport_mux_get_proto_v
                0x000000000004de00       0x85 /home/zxli/code/parrot-groundsdk/out/olympe-linux/build/libarsdk/obj/libarsdk/src/mux/arsdk_transport_mux.c.o
 *fill*         0x000000000004de85        0xb 
 .text.transport_mux_channel_cb
                0x000000000004de90      0x3e9 /home/zxli/code/parrot-groundsdk/out/olympe-linux/build/libarsdk/obj/libarsdk/src/mux/arsdk_transport_mux.c.o
 *fill*         0x000000000004e279        0x7 
 .text.arsdk_transport_mux_dispose
                0x000000000004e280       0x8d /home/zxli/code/parrot-groundsdk/out/olympe-linux/build/libarsdk/obj/libarsdk/src/mux/arsdk_transport_mux.c.o
 *fill*         0x000000000004e30d        0x3 
 .text.arsdk_transport_mux_new
                0x000000000004e310      0x15a /home/zxli/code/parrot-groundsdk/out/olympe-linux/build/libarsdk/obj/libarsdk/src/mux/arsdk_transport_mux.c.o
                0x000000000004e310                arsdk_transport_mux_new
 *fill*         0x000000000004e46a        0x6 
 .text.arsdk_transport_mux_get_parent
                0x000000000004e470       0x13 /home/zxli/code/parrot-groundsdk/out/olympe-linux/build/libarsdk/obj/libarsdk/src/mux/arsdk_transport_mux.c.o
                0x000000000004e470                arsdk_transport_mux_get_parent
 *fill*         0x000000000004e483        0xd 
 .text.arsdk_transport_mux_get_cfg
                0x000000000004e490       0xdd /home/zxli/code/parrot-groundsdk/out/olympe-linux/build/libarsdk/obj/libarsdk/src/mux/arsdk_transport_mux.c.o
                0x000000000004e490                arsdk_transport_mux_get_cfg
 *fill*         0x000000000004e56d        0x3 
 .text.arsdk_transport_mux_update_cfg
                0x000000000004e570       0xdd /home/zxli/code/parrot-groundsdk/out/olympe-linux/build/libarsdk/obj/libarsdk/src/mux/arsdk_transport_mux.c.o
                0x000000000004e570                arsdk_transport_mux_update_cfg
 *fill*         0x000000000004e64d        0x3 
 .text.arsdk_get_cmd_table
                0x000000000004e650        0x8 /home/zxli/code/parrot-groundsdk/out/olympe-linux/staging/usr/lib/libarsdkgen.a(arsdk_cmd_desc.c.o)
                0x000000000004e650                arsdk_get_cmd_table
 *(.gnu.warning)

.fini           0x000000000004e658        0x9
 *(SORT_NONE(.fini))
 .fini          0x000000000004e658        0x4 /usr/lib/gcc/x86_64-linux-gnu/7/../../../x86_64-linux-gnu/crti.o
                0x000000000004e658                _fini
 .fini          0x000000000004e65c        0x5 /usr/lib/gcc/x86_64-linux-gnu/7/../../../x86_64-linux-gnu/crtn.o
                [!provide]                        PROVIDE (__etext = .)
                [!provide]                        PROVIDE (_etext = .)
                [!provide]                        PROVIDE (etext = .)

.rodata         0x000000000004e680     0xcb68
 *(.rodata .rodata.* .gnu.linkonce.r.*)
 .rodata.str1.1
                0x000000000004e680      0x14d /home/zxli/code/parrot-groundsdk/out/olympe-linux/build/libarsdk/obj/libarsdk/src/arsdk_backend.c.o
                                        0x162 (size before relaxing)
 *fill*         0x000000000004e7cd        0x3 
 .rodata        0x000000000004e7d0      0x1a2 /home/zxli/code/parrot-groundsdk/out/olympe-linux/build/libarsdk/obj/libarsdk/src/arsdk_backend.c.o
 .rodata.str1.1
                0x000000000004e972       0x62 /home/zxli/code/parrot-groundsdk/out/olympe-linux/build/libarsdk/obj/libarsdk/src/cmd_itf/arsdk_cmd_itf.c.o
                                         0x7c (size before relaxing)
 *fill*         0x000000000004e9d4        0xc 
 .rodata        0x000000000004e9e0      0x112 /home/zxli/code/parrot-groundsdk/out/olympe-linux/build/libarsdk/obj/libarsdk/src/cmd_itf/arsdk_cmd_itf.c.o
 .rodata.str1.1
                0x000000000004eaf2       0x99 /home/zxli/code/parrot-groundsdk/out/olympe-linux/build/libarsdk/obj/libarsdk/src/cmd_itf/arsdk_cmd_itf1.c.o
                                         0xab (size before relaxing)
 *fill*         0x000000000004eb8b        0x5 
 .rodata.str1.8
                0x000000000004eb90       0xa8 /home/zxli/code/parrot-groundsdk/out/olympe-linux/build/libarsdk/obj/libarsdk/src/cmd_itf/arsdk_cmd_itf1.c.o
 *fill*         0x000000000004ec38        0x8 
 .rodata        0x000000000004ec40       0xc4 /home/zxli/code/parrot-groundsdk/out/olympe-linux/build/libarsdk/obj/libarsdk/src/cmd_itf/arsdk_cmd_itf1.c.o
 .rodata.str1.1
                0x000000000004ed04       0x1d /home/zxli/code/parrot-groundsdk/out/olympe-linux/build/libarsdk/obj/libarsdk/src/cmd_itf/arsdk_cmd_itf2.c.o
                                         0xc8 (size before relaxing)
 *fill*         0x000000000004ed21        0x7 
 .rodata.str1.8
                0x000000000004ed28       0x97 /home/zxli/code/parrot-groundsdk/out/olympe-linux/build/libarsdk/obj/libarsdk/src/cmd_itf/arsdk_cmd_itf2.c.o
                                         0xf7 (size before relaxing)
 *fill*         0x000000000004edbf        0x1 
 .rodata        0x000000000004edc0       0xd4 /home/zxli/code/parrot-groundsdk/out/olympe-linux/build/libarsdk/obj/libarsdk/src/cmd_itf/arsdk_cmd_itf2.c.o
 .rodata.str1.1
                0x000000000004ee94       0xc8 /home/zxli/code/parrot-groundsdk/out/olympe-linux/build/libarsdk/obj/libarsdk/src/cmd_itf/arsdk_cmd_itf3.c.o
 .rodata.str1.8
                0x000000000004ee94       0xf7 /home/zxli/code/parrot-groundsdk/out/olympe-linux/build/libarsdk/obj/libarsdk/src/cmd_itf/arsdk_cmd_itf3.c.o
 *fill*         0x000000000004ee94        0xc 
 .rodata        0x000000000004eea0       0xd4 /home/zxli/code/parrot-groundsdk/out/olympe-linux/build/libarsdk/obj/libarsdk/src/cmd_itf/arsdk_cmd_itf3.c.o
 .rodata.str1.1
                0x000000000004ef74       0x48 /home/zxli/code/parrot-groundsdk/out/olympe-linux/build/libarsdk/obj/libarsdk/src/arsdk_decoder.c.o
                                         0x65 (size before relaxing)
 *fill*         0x000000000004efbc        0x4 
 .rodata.str1.8
                0x000000000004efc0       0xe7 /home/zxli/code/parrot-groundsdk/out/olympe-linux/build/libarsdk/obj/libarsdk/src/arsdk_decoder.c.o
 *fill*         0x000000000004f0a7        0x9 
 .rodata        0x000000000004f0b0       0xf6 /home/zxli/code/parrot-groundsdk/out/olympe-linux/build/libarsdk/obj/libarsdk/src/arsdk_decoder.c.o
 .rodata.str1.1
                0x000000000004f1a6       0x12 /home/zxli/code/parrot-groundsdk/out/olympe-linux/build/libarsdk/obj/libarsdk/src/arsdk_mngr.c.o
 *fill*         0x000000000004f1a6        0x2 
 .rodata.str1.8
                0x000000000004f1a8       0xae /home/zxli/code/parrot-groundsdk/out/olympe-linux/build/libarsdk/obj/libarsdk/src/arsdk_mngr.c.o
 *fill*         0x000000000004f256        0xa 
 .rodata        0x000000000004f260       0xc7 /home/zxli/code/parrot-groundsdk/out/olympe-linux/build/libarsdk/obj/libarsdk/src/arsdk_mngr.c.o
 .rodata.str1.1
                0x000000000004f327       0x48 /home/zxli/code/parrot-groundsdk/out/olympe-linux/build/libarsdk/obj/libarsdk/src/arsdk_encoder.c.o
                                         0x13 (size before relaxing)
 *fill*         0x000000000004f327        0x1 
 .rodata.str1.8
                0x000000000004f328       0x22 /home/zxli/code/parrot-groundsdk/out/olympe-linux/build/libarsdk/obj/libarsdk/src/arsdk_encoder.c.o
 *fill*         0x000000000004f34a        0x6 
 .rodata        0x000000000004f350       0x82 /home/zxli/code/parrot-groundsdk/out/olympe-linux/build/libarsdk/obj/libarsdk/src/arsdk_encoder.c.o
 .rodata.str1.1
                0x000000000004f3d2        0x6 /home/zxli/code/parrot-groundsdk/out/olympe-linux/build/libarsdk/obj/libarsdk/src/arsdk_log.c.o
 .rodata.str1.1
                0x000000000004f3d8       0x27 /home/zxli/code/parrot-groundsdk/out/olympe-linux/build/libarsdk/obj/libarsdk/src/arsdk_peer.c.o
                                         0x4e (size before relaxing)
 *fill*         0x000000000004f3ff        0x1 
 .rodata.str1.8
                0x000000000004f400       0x27 /home/zxli/code/parrot-groundsdk/out/olympe-linux/build/libarsdk/obj/libarsdk/src/arsdk_peer.c.o
 *fill*         0x000000000004f427       0x19 
 .rodata        0x000000000004f440      0x190 /home/zxli/code/parrot-groundsdk/out/olympe-linux/build/libarsdk/obj/libarsdk/src/arsdk_peer.c.o
 .rodata.str1.1
                0x000000000004f5d0       0xa4 /home/zxli/code/parrot-groundsdk/out/olympe-linux/build/libarsdk/obj/libarsdk/src/arsdk_transport.c.o
                                         0xde (size before relaxing)
 *fill*         0x000000000004f674        0x4 
 .rodata.str1.8
                0x000000000004f678       0x50 /home/zxli/code/parrot-groundsdk/out/olympe-linux/build/libarsdk/obj/libarsdk/src/arsdk_transport.c.o
 *fill*         0x000000000004f6c8       0x18 
 .rodata        0x000000000004f6e0      0x124 /home/zxli/code/parrot-groundsdk/out/olympe-linux/build/libarsdk/obj/libarsdk/src/arsdk_transport.c.o
 .rodata.str1.1
                0x000000000004f804       0xe4 /home/zxli/code/parrot-groundsdk/out/olympe-linux/build/libarsdk/obj/libarsdk/src/net/arsdk_backend_net.c.o
                                        0x116 (size before relaxing)
 .rodata.str1.8
                0x000000000004f8e8      0x14f /home/zxli/code/parrot-groundsdk/out/olympe-linux/build/libarsdk/obj/libarsdk/src/net/arsdk_backend_net.c.o
 *fill*         0x000000000004fa37        0x9 
 .rodata        0x000000000004fa40      0x1cf /home/zxli/code/parrot-groundsdk/out/olympe-linux/build/libarsdk/obj/libarsdk/src/net/arsdk_backend_net.c.o
 .rodata.str1.1
                0x000000000004fc0f       0xe4 /home/zxli/code/parrot-groundsdk/out/olympe-linux/build/libarsdk/obj/libarsdk/src/net/arsdk_publisher_avahi.c.o
                                         0x14 (size before relaxing)
 *fill*         0x000000000004fc0f        0x1 
 .rodata.str1.8
                0x000000000004fc10      0x1aa /home/zxli/code/parrot-groundsdk/out/olympe-linux/build/libarsdk/obj/libarsdk/src/net/arsdk_publisher_avahi.c.o
 *fill*         0x000000000004fdba        0x6 
 .rodata        0x000000000004fdc0       0x8a /home/zxli/code/parrot-groundsdk/out/olympe-linux/build/libarsdk/obj/libarsdk/src/net/arsdk_publisher_avahi.c.o
 .rodata.str1.1
                0x000000000004fe4a       0xb8 /home/zxli/code/parrot-groundsdk/out/olympe-linux/build/libarsdk/obj/libarsdk/src/net/arsdk_publisher_net.c.o
                                        0x100 (size before relaxing)
 *fill*         0x000000000004ff02        0x6 
 .rodata.str1.8
                0x000000000004ff08       0x32 /home/zxli/code/parrot-groundsdk/out/olympe-linux/build/libarsdk/obj/libarsdk/src/net/arsdk_publisher_net.c.o
 *fill*         0x000000000004ff3a        0x6 
 .rodata        0x000000000004ff40       0x88 /home/zxli/code/parrot-groundsdk/out/olympe-linux/build/libarsdk/obj/libarsdk/src/net/arsdk_publisher_net.c.o
 .rodata.str1.1
                0x000000000004ffc8       0xd3 /home/zxli/code/parrot-groundsdk/out/olympe-linux/build/libarsdk/obj/libarsdk/src/net/arsdk_transport_net.c.o
                                        0x103 (size before relaxing)
 *fill*         0x000000000005009b        0x5 
 .rodata.str1.8
                0x00000000000500a0      0x1a1 /home/zxli/code/parrot-groundsdk/out/olympe-linux/build/libarsdk/obj/libarsdk/src/net/arsdk_transport_net.c.o
 *fill*         0x0000000000050241       0x1f 
 .rodata        0x0000000000050260      0x158 /home/zxli/code/parrot-groundsdk/out/olympe-linux/build/libarsdk/obj/libarsdk/src/net/arsdk_transport_net.c.o
 .rodata.str1.1
                0x00000000000503b8       0x81 /home/zxli/code/parrot-groundsdk/out/olympe-linux/build/libarsdk/obj/libarsdk/src/mux/arsdk_backend_mux.c.o
                                        0x117 (size before relaxing)
 *fill*         0x0000000000050439        0x7 
 .rodata.str1.8
                0x0000000000050440       0x9d /home/zxli/code/parrot-groundsdk/out/olympe-linux/build/libarsdk/obj/libarsdk/src/mux/arsdk_backend_mux.c.o
                                        0x156 (size before relaxing)
 *fill*         0x00000000000504dd        0x3 
 .rodata        0x00000000000504e0      0x18f /home/zxli/code/parrot-groundsdk/out/olympe-linux/build/libarsdk/obj/libarsdk/src/mux/arsdk_backend_mux.c.o
 .rodata.str1.1
                0x000000000005066f       0x3b /home/zxli/code/parrot-groundsdk/out/olympe-linux/build/libarsdk/obj/libarsdk/src/mux/arsdk_publisher_mux.c.o
                                         0x8d (size before relaxing)
 *fill*         0x00000000000506aa        0x6 
 .rodata.str1.8
                0x00000000000506b0       0x4d /home/zxli/code/parrot-groundsdk/out/olympe-linux/build/libarsdk/obj/libarsdk/src/mux/arsdk_publisher_mux.c.o
 *fill*         0x00000000000506fd        0x3 
 .rodata        0x0000000000050700       0x98 /home/zxli/code/parrot-groundsdk/out/olympe-linux/build/libarsdk/obj/libarsdk/src/mux/arsdk_publisher_mux.c.o
 .rodata.str1.1
                0x0000000000050798       0x74 /home/zxli/code/parrot-groundsdk/out/olympe-linux/build/libarsdk/obj/libarsdk/src/mux/arsdk_transport_mux.c.o
                                         0xde (size before relaxing)
 *fill*         0x000000000005080c        0x4 
 .rodata.str1.8
                0x0000000000050810       0x78 /home/zxli/code/parrot-groundsdk/out/olympe-linux/build/libarsdk/obj/libarsdk/src/mux/arsdk_transport_mux.c.o
 *fill*         0x0000000000050888       0x18 
 .rodata        0x00000000000508a0       0xf8 /home/zxli/code/parrot-groundsdk/out/olympe-linux/build/libarsdk/obj/libarsdk/src/mux/arsdk_transport_mux.c.o
 .rodata.str1.1
                0x0000000000050998     0x5259 /home/zxli/code/parrot-groundsdk/out/olympe-linux/staging/usr/lib/libarsdkgen.a(arsdk_cmd_desc.c.o)
                                       0x5618 (size before relaxing)
 *fill*         0x0000000000055bf1        0x7 
 .rodata.str1.8
                0x0000000000055bf8     0x55f0 /home/zxli/code/parrot-groundsdk/out/olympe-linux/staging/usr/lib/libarsdkgen.a(arsdk_cmd_desc.c.o)
                                       0x55eb (size before relaxing)

.rodata1
 *(.rodata1)

.eh_frame_hdr   0x000000000005b1e8      0x624
 *(.eh_frame_hdr)
 .eh_frame_hdr  0x000000000005b1e8      0x624 /home/zxli/code/parrot-groundsdk/out/olympe-linux/build/libarsdk/obj/libarsdk/src/arsdk_backend.c.o
                0x000000000005b1e8                __GNU_EH_FRAME_HDR
 *(.eh_frame_entry .eh_frame_entry.*)

.eh_frame       0x000000000005b810     0x3558
 *(.eh_frame)
 .eh_frame      0x000000000005b810       0x40 /usr/lib/gcc/x86_64-linux-gnu/7/../../../x86_64-linux-gnu/crti.o
 .eh_frame      0x000000000005b850       0x18 /usr/lib/gcc/x86_64-linux-gnu/7/../../../x86_64-linux-gnu/crti.o
                                         0x30 (size before relaxing)
 .eh_frame      0x000000000005b868      0x328 /home/zxli/code/parrot-groundsdk/out/olympe-linux/build/libarsdk/obj/libarsdk/src/arsdk_backend.c.o
                                        0x340 (size before relaxing)
 .eh_frame      0x000000000005bb90      0x2b8 /home/zxli/code/parrot-groundsdk/out/olympe-linux/build/libarsdk/obj/libarsdk/src/cmd_itf/arsdk_cmd_itf.c.o
                                        0x2d0 (size before relaxing)
 .eh_frame      0x000000000005be48      0x3a8 /home/zxli/code/parrot-groundsdk/out/olympe-linux/build/libarsdk/obj/libarsdk/src/cmd_itf/arsdk_cmd_itf1.c.o
                                        0x3c0 (size before relaxing)
 .eh_frame      0x000000000005c1f0      0x3c8 /home/zxli/code/parrot-groundsdk/out/olympe-linux/build/libarsdk/obj/libarsdk/src/cmd_itf/arsdk_cmd_itf2.c.o
                                        0x3e0 (size before relaxing)
 .eh_frame      0x000000000005c5b8      0x3c8 /home/zxli/code/parrot-groundsdk/out/olympe-linux/build/libarsdk/obj/libarsdk/src/cmd_itf/arsdk_cmd_itf3.c.o
                                        0x3e0 (size before relaxing)
 .eh_frame      0x000000000005c980      0x2b8 /home/zxli/code/parrot-groundsdk/out/olympe-linux/build/libarsdk/obj/libarsdk/src/arsdk_decoder.c.o
                                        0x2d0 (size before relaxing)
 .eh_frame      0x000000000005cc38      0x2c0 /home/zxli/code/parrot-groundsdk/out/olympe-linux/build/libarsdk/obj/libarsdk/src/arsdk_mngr.c.o
                                        0x2d8 (size before relaxing)
 .eh_frame      0x000000000005cef8       0xf0 /home/zxli/code/parrot-groundsdk/out/olympe-linux/build/libarsdk/obj/libarsdk/src/arsdk_encoder.c.o
                                        0x108 (size before relaxing)
 .eh_frame      0x000000000005cfe8      0x410 /home/zxli/code/parrot-groundsdk/out/olympe-linux/build/libarsdk/obj/libarsdk/src/arsdk_peer.c.o
                                        0x428 (size before relaxing)
 .eh_frame      0x000000000005d3f8      0x380 /home/zxli/code/parrot-groundsdk/out/olympe-linux/build/libarsdk/obj/libarsdk/src/arsdk_transport.c.o
                                        0x398 (size before relaxing)
 .eh_frame      0x000000000005d778      0x4e8 /home/zxli/code/parrot-groundsdk/out/olympe-linux/build/libarsdk/obj/libarsdk/src/net/arsdk_backend_net.c.o
                                        0x500 (size before relaxing)
 .eh_frame      0x000000000005dc60      0x138 /home/zxli/code/parrot-groundsdk/out/olympe-linux/build/libarsdk/obj/libarsdk/src/net/arsdk_publisher_avahi.c.o
                                        0x150 (size before relaxing)
 .eh_frame      0x000000000005dd98      0x280 /home/zxli/code/parrot-groundsdk/out/olympe-linux/build/libarsdk/obj/libarsdk/src/net/arsdk_publisher_net.c.o
                                        0x298 (size before relaxing)
 .eh_frame      0x000000000005e018      0x430 /home/zxli/code/parrot-groundsdk/out/olympe-linux/build/libarsdk/obj/libarsdk/src/net/arsdk_transport_net.c.o
                                        0x448 (size before relaxing)
 .eh_frame      0x000000000005e448      0x3d0 /home/zxli/code/parrot-groundsdk/out/olympe-linux/build/libarsdk/obj/libarsdk/src/mux/arsdk_backend_mux.c.o
                                        0x3e8 (size before relaxing)
 .eh_frame      0x000000000005e818      0x240 /home/zxli/code/parrot-groundsdk/out/olympe-linux/build/libarsdk/obj/libarsdk/src/mux/arsdk_publisher_mux.c.o
                                        0x258 (size before relaxing)
 .eh_frame      0x000000000005ea58      0x2f8 /home/zxli/code/parrot-groundsdk/out/olympe-linux/build/libarsdk/obj/libarsdk/src/mux/arsdk_transport_mux.c.o
                                        0x310 (size before relaxing)
 .eh_frame      0x000000000005ed50       0x14 /home/zxli/code/parrot-groundsdk/out/olympe-linux/staging/usr/lib/libarsdkgen.a(arsdk_cmd_desc.c.o)
                                         0x30 (size before relaxing)
 .eh_frame      0x000000000005ed64        0x4 /usr/lib/gcc/x86_64-linux-gnu/7/crtendS.o
 *(.eh_frame.*)

.gcc_except_table
 *(.gcc_except_table .gcc_except_table.*)

.gnu_extab
 *(.gnu_extab*)

.exception_ranges
 *(.exception_ranges .exception_ranges*)
                0x000000000025f4b0                . = DATA_SEGMENT_ALIGN (CONSTANT (MAXPAGESIZE), CONSTANT (COMMONPAGESIZE))

.eh_frame
 *(.eh_frame)
 *(.eh_frame.*)

.gnu_extab
 *(.gnu_extab)

.gcc_except_table
 *(.gcc_except_table .gcc_except_table.*)

.exception_ranges
 *(.exception_ranges .exception_ranges*)

.tdata
 *(.tdata .tdata.* .gnu.linkonce.td.*)

.tbss
 *(.tbss .tbss.* .gnu.linkonce.tb.*)
 *(.tcommon)

.preinit_array
 *(.preinit_array)

.init_array     0x000000000025f4b0        0x8
 *(SORT_BY_INIT_PRIORITY(.init_array.*) SORT_BY_INIT_PRIORITY(.ctors.*))
 *(.init_array EXCLUDE_FILE(*crtend?.o *crtend.o *crtbegin?.o *crtbegin.o) .ctors)
 .init_array    0x000000000025f4b0        0x8 /usr/lib/gcc/x86_64-linux-gnu/7/crtbeginS.o

.fini_array     0x000000000025f4b8        0x8
 *(SORT_BY_INIT_PRIORITY(.fini_array.*) SORT_BY_INIT_PRIORITY(.dtors.*))
 *(.fini_array EXCLUDE_FILE(*crtend?.o *crtend.o *crtbegin?.o *crtbegin.o) .dtors)
 .fini_array    0x000000000025f4b8        0x8 /usr/lib/gcc/x86_64-linux-gnu/7/crtbeginS.o

.ctors
 *crtbegin.o(.ctors)
 *crtbegin?.o(.ctors)
 *(EXCLUDE_FILE(*crtend?.o *crtend.o) .ctors)
 *(SORT_BY_NAME(.ctors.*))
 *(.ctors)

.dtors
 *crtbegin.o(.dtors)
 *crtbegin?.o(.dtors)
 *(EXCLUDE_FILE(*crtend?.o *crtend.o) .dtors)
 *(SORT_BY_NAME(.dtors.*))
 *(.dtors)

.jcr
 *(.jcr)

.data.rel.ro    0x000000000025f4c0    0x228d0
 *(.data.rel.ro.local* .gnu.linkonce.d.rel.ro.local.*)
 .data.rel.ro.local
                0x000000000025f4c0       0x20 /home/zxli/code/parrot-groundsdk/out/olympe-linux/build/libarsdk/obj/libarsdk/src/net/arsdk_backend_net.c.o
 .data.rel.ro.local
                0x000000000025f4e0       0x28 /home/zxli/code/parrot-groundsdk/out/olympe-linux/build/libarsdk/obj/libarsdk/src/net/arsdk_transport_net.c.o
 *fill*         0x000000000025f508       0x18 
 .data.rel.ro.local
                0x000000000025f520       0x20 /home/zxli/code/parrot-groundsdk/out/olympe-linux/build/libarsdk/obj/libarsdk/src/mux/arsdk_backend_mux.c.o
 .data.rel.ro.local
                0x000000000025f540       0x28 /home/zxli/code/parrot-groundsdk/out/olympe-linux/build/libarsdk/obj/libarsdk/src/mux/arsdk_transport_mux.c.o
 *fill*         0x000000000025f568       0x18 
 .data.rel.ro.local
                0x000000000025f580    0x20330 /home/zxli/code/parrot-groundsdk/out/olympe-linux/staging/usr/lib/libarsdkgen.a(arsdk_cmd_desc.c.o)
                0x000000000025f580                g_arsdk_cmd_desc_Move_Info
                0x000000000025f5e0                g_arsdk_cmd_desc_Move_Extended_move_by
                0x000000000025f700                g_arsdk_cmd_desc_Move_Extended_move_to
                0x000000000025f960                g_arsdk_cmd_desc_Security_edition_Log_storage_state
                0x000000000025f9c0                g_arsdk_cmd_desc_Security_edition_Capabilities
                0x000000000025fa20                g_arsdk_cmd_desc_Security_edition_Deactivate_logs
                0x000000000025fa80                g_arsdk_cmd_desc_Dri_Dri_type
                0x000000000025fb20                g_arsdk_cmd_desc_Dri_Drone_id
                0x000000000025fba0                g_arsdk_cmd_desc_Dri_Dri_state
                0x000000000025fc00                g_arsdk_cmd_desc_Dri_Capabilities
                0x000000000025fc60                g_arsdk_cmd_desc_Dri_Set_dri_type
                0x000000000025fce0                g_arsdk_cmd_desc_Dri_Dri_mode
                0x000000000025fe20                g_arsdk_cmd_desc_Gauge_fw_updater_Progress
                0x000000000025fea0                g_arsdk_cmd_desc_Gauge_fw_updater_Status
                0x000000000025ff40                g_arsdk_cmd_desc_Gauge_fw_updater_Update
                0x000000000025ff80                g_arsdk_cmd_desc_Gauge_fw_updater_Prepare
                0x00000000002600e0                g_arsdk_cmd_desc_Piloting_style_Capabilities
                0x0000000000260140                g_arsdk_cmd_desc_Piloting_style_Style
                0x00000000002601a0                g_arsdk_cmd_desc_Piloting_style_Set_style
                0x0000000000260220                g_arsdk_cmd_desc_Leds_Switch_state
                0x0000000000260280                g_arsdk_cmd_desc_Leds_Capabilities
                0x00000000002602e0                g_arsdk_cmd_desc_Leds_Deactivate
                0x0000000000260320                g_arsdk_cmd_desc_Leds_Activate
                0x0000000000260380                g_arsdk_cmd_desc_Thermal_Shutter_mode
                0x00000000002603e0                g_arsdk_cmd_desc_Thermal_Sensitivity
                0x0000000000260440                g_arsdk_cmd_desc_Thermal_Background_temperature
                0x00000000002604a0                g_arsdk_cmd_desc_Thermal_Emissivity
                0x0000000000260500                g_arsdk_cmd_desc_Thermal_Rendering
                0x0000000000260580                g_arsdk_cmd_desc_Thermal_Palette_settings
                0x00000000002606a0                g_arsdk_cmd_desc_Thermal_Palette_part
                0x0000000000260780                g_arsdk_cmd_desc_Thermal_Capabilities
                0x00000000002607e0                g_arsdk_cmd_desc_Thermal_Mode
                0x0000000000260840                g_arsdk_cmd_desc_Thermal_Trigg_shutter
                0x0000000000260880                g_arsdk_cmd_desc_Thermal_Set_shutter_mode
                0x00000000002608e0                g_arsdk_cmd_desc_Thermal_Set_sensitivity
                0x0000000000260940                g_arsdk_cmd_desc_Thermal_Set_background_temperature
                0x00000000002609a0                g_arsdk_cmd_desc_Thermal_Set_emissivity
                0x0000000000260a00                g_arsdk_cmd_desc_Thermal_Set_rendering
                0x0000000000260a80                g_arsdk_cmd_desc_Thermal_Set_palette_settings
                0x0000000000260ba0                g_arsdk_cmd_desc_Thermal_Set_palette_part
                0x0000000000260c80                g_arsdk_cmd_desc_Thermal_Set_mode
                0x0000000000260e40                g_arsdk_cmd_desc_Precise_home_State
                0x0000000000260ea0                g_arsdk_cmd_desc_Precise_home_Mode
                0x0000000000260f00                g_arsdk_cmd_desc_Precise_home_Capabilities
                0x0000000000260f60                g_arsdk_cmd_desc_Precise_home_Set_mode
                0x0000000000261020                g_arsdk_cmd_desc_Mediastore_Counters
                0x00000000002610e0                g_arsdk_cmd_desc_Mediastore_State
                0x0000000000261180                g_arsdk_cmd_desc_Battery_Serial
                0x00000000002611e0                g_arsdk_cmd_desc_Battery_Cycle_count
                0x0000000000261240                g_arsdk_cmd_desc_Battery_Voltage
                0x00000000002612a0                g_arsdk_cmd_desc_Battery_Health
                0x0000000000261300                g_arsdk_cmd_desc_Battery_Alert
                0x0000000000261420                g_arsdk_cmd_desc_Gimbal_Alert
                0x00000000002614a0                g_arsdk_cmd_desc_Gimbal_Calibration_result
                0x0000000000261520                g_arsdk_cmd_desc_Gimbal_Calibration_state
                0x00000000002615a0                g_arsdk_cmd_desc_Gimbal_Offsets
                0x0000000000261740                g_arsdk_cmd_desc_Gimbal_Axis_lock_state
                0x00000000002617c0                g_arsdk_cmd_desc_Gimbal_Attitude
                0x0000000000261940                g_arsdk_cmd_desc_Gimbal_Max_speed
                0x0000000000261ac0                g_arsdk_cmd_desc_Gimbal_Absolute_attitude_bounds
                0x0000000000261be0                g_arsdk_cmd_desc_Gimbal_Relative_attitude_bounds
                0x0000000000261d00                g_arsdk_cmd_desc_Gimbal_Gimbal_capabilities
                0x0000000000261da0                g_arsdk_cmd_desc_Gimbal_Cancel_calibration
                0x0000000000261e00                g_arsdk_cmd_desc_Gimbal_Calibrate
                0x0000000000261e60                g_arsdk_cmd_desc_Gimbal_Reset_orientation
                0x0000000000261ec0                g_arsdk_cmd_desc_Gimbal_Set_offsets
                0x0000000000261f80                g_arsdk_cmd_desc_Gimbal_Stop_offsets_update
                0x0000000000261fe0                g_arsdk_cmd_desc_Gimbal_Start_offsets_update
                0x0000000000262040                g_arsdk_cmd_desc_Gimbal_Set_target
                0x0000000000262180                g_arsdk_cmd_desc_Gimbal_Set_max_speed
                0x00000000002623e0                g_arsdk_cmd_desc_Sequoia_cam_Live_stitch_pictures_in_progress_number_changed
                0x0000000000262480                g_arsdk_cmd_desc_Sequoia_cam_System_status
                0x0000000000262520                g_arsdk_cmd_desc_Sequoia_cam_Storage_infos
                0x0000000000262700                g_arsdk_cmd_desc_Sequoia_cam_Live_stitch_last_picture_id_changed
                0x00000000002627a0                g_arsdk_cmd_desc_Sequoia_cam_Live_stitch_mask_changed
                0x0000000000262840                g_arsdk_cmd_desc_Sequoia_cam_Session_state_changed
                0x0000000000262920                g_arsdk_cmd_desc_Sequoia_cam_Radiometric_calib_result
                0x00000000002629c0                g_arsdk_cmd_desc_Sequoia_cam_Radiometric_calib_status
                0x0000000000262a60                g_arsdk_cmd_desc_Sequoia_cam_Factory_reset
                0x0000000000262ac0                g_arsdk_cmd_desc_Sequoia_cam_Get_storage_infos
                0x0000000000262b20                g_arsdk_cmd_desc_Sequoia_cam_Set_live_stitch_mask
                0x0000000000262ba0                g_arsdk_cmd_desc_Sequoia_cam_Close_session
                0x0000000000262c00                g_arsdk_cmd_desc_Sequoia_cam_Open_session
                0x0000000000262c80                g_arsdk_cmd_desc_Sequoia_cam_Radiometric_calib_start
                0x0000000000262e00                g_arsdk_cmd_desc_Rth_Ending_hovering_altitude
                0x0000000000262ea0                g_arsdk_cmd_desc_Rth_Ending_behavior
                0x0000000000262f00                g_arsdk_cmd_desc_Rth_Auto_trigger_mode
                0x0000000000262f60                g_arsdk_cmd_desc_Rth_Min_altitude
                0x0000000000263000                g_arsdk_cmd_desc_Rth_Rth_auto_trigger
                0x0000000000263080                g_arsdk_cmd_desc_Rth_Home_reachability
                0x00000000002630e0                g_arsdk_cmd_desc_Rth_State
                0x0000000000263160                g_arsdk_cmd_desc_Rth_Delay
                0x0000000000263200                g_arsdk_cmd_desc_Rth_Followee_location
                0x00000000002632a0                g_arsdk_cmd_desc_Rth_Custom_location
                0x0000000000263340                g_arsdk_cmd_desc_Rth_Takeoff_location
                0x0000000000263400                g_arsdk_cmd_desc_Rth_Preferred_home_type
                0x0000000000263460                g_arsdk_cmd_desc_Rth_Home_type
                0x00000000002634c0                g_arsdk_cmd_desc_Rth_Home_type_capabilities
                0x0000000000263520                g_arsdk_cmd_desc_Rth_Set_ending_hovering_altitude
                0x0000000000263580                g_arsdk_cmd_desc_Rth_Set_ending_behavior
                0x00000000002635e0                g_arsdk_cmd_desc_Rth_Set_auto_trigger_mode
                0x0000000000263640                g_arsdk_cmd_desc_Rth_Set_min_altitude
                0x00000000002636a0                g_arsdk_cmd_desc_Rth_Cancel_auto_trigger
                0x00000000002636e0                g_arsdk_cmd_desc_Rth_Abort
                0x0000000000263720                g_arsdk_cmd_desc_Rth_Return_to_home
                0x0000000000263760                g_arsdk_cmd_desc_Rth_Set_delay
                0x00000000002637c0                g_arsdk_cmd_desc_Rth_Set_custom_location
                0x0000000000263860                g_arsdk_cmd_desc_Rth_Set_preferred_home_type
                0x0000000000263a80                g_arsdk_cmd_desc_User_storage_Format_progress
                0x0000000000263b00                g_arsdk_cmd_desc_User_storage_Decryption
                0x0000000000263b60                g_arsdk_cmd_desc_User_storage_Format_result
                0x0000000000263bc0                g_arsdk_cmd_desc_User_storage_Sdcard_uuid
                0x0000000000263c20                g_arsdk_cmd_desc_User_storage_State
                0x0000000000263d00                g_arsdk_cmd_desc_User_storage_Monitor
                0x0000000000263d60                g_arsdk_cmd_desc_User_storage_Info
                0x0000000000263de0                g_arsdk_cmd_desc_User_storage_Supported_formatting_types
                0x0000000000263e40                g_arsdk_cmd_desc_User_storage_Capabilities
                0x0000000000263ea0                g_arsdk_cmd_desc_User_storage_Encryption_password
                0x0000000000263f20                g_arsdk_cmd_desc_User_storage_Stop_monitoring
                0x0000000000263f60                g_arsdk_cmd_desc_User_storage_Start_monitoring
                0x0000000000263fc0                g_arsdk_cmd_desc_User_storage_Format_with_encryption
                0x0000000000264060                g_arsdk_cmd_desc_User_storage_Format_with_type
                0x00000000002640e0                g_arsdk_cmd_desc_User_storage_Format
                0x0000000000264380                g_arsdk_cmd_desc_Animation_Spherical_photo_panorama_state
                0x00000000002643e0                g_arsdk_cmd_desc_Animation_Vertical_180_photo_panorama_state
                0x0000000000264440                g_arsdk_cmd_desc_Animation_Horizontal_180_photo_panorama_state
                0x00000000002644a0                g_arsdk_cmd_desc_Animation_Position_twist_up_state
                0x00000000002645a0                g_arsdk_cmd_desc_Animation_Twist_up_state
                0x00000000002646a0                g_arsdk_cmd_desc_Animation_Vertigo_state
                0x0000000000264780                g_arsdk_cmd_desc_Animation_Dolly_slide_state
                0x0000000000264860                g_arsdk_cmd_desc_Animation_Candle_state
                0x0000000000264920                g_arsdk_cmd_desc_Animation_Parabola_state
                0x00000000002649e0                g_arsdk_cmd_desc_Animation_Spiral_state
                0x0000000000264ae0                g_arsdk_cmd_desc_Animation_Vertical_reveal_state
                0x0000000000264be0                g_arsdk_cmd_desc_Animation_Horizontal_reveal_state
                0x0000000000264ca0                g_arsdk_cmd_desc_Animation_Dronie_state
                0x0000000000264d60                g_arsdk_cmd_desc_Animation_Horizontal_panorama_state
                0x0000000000264e00                g_arsdk_cmd_desc_Animation_Flip_state
                0x0000000000264e80                g_arsdk_cmd_desc_Animation_State
                0x0000000000264f00                g_arsdk_cmd_desc_Animation_Availability
                0x0000000000264f60                g_arsdk_cmd_desc_Animation_Start_spherical_photo_panorama
                0x0000000000264fa0                g_arsdk_cmd_desc_Animation_Start_vertical_180_photo_panorama
                0x0000000000264fe0                g_arsdk_cmd_desc_Animation_Start_horizontal_180_photo_panorama
                0x0000000000265020                g_arsdk_cmd_desc_Animation_Start_position_twist_up
                0x0000000000265120                g_arsdk_cmd_desc_Animation_Start_twist_up
                0x0000000000265220                g_arsdk_cmd_desc_Animation_Start_vertigo
                0x0000000000265300                g_arsdk_cmd_desc_Animation_Start_dolly_slide
                0x00000000002653e0                g_arsdk_cmd_desc_Animation_Start_candle
                0x00000000002654a0                g_arsdk_cmd_desc_Animation_Start_parabola
                0x0000000000265560                g_arsdk_cmd_desc_Animation_Start_spiral
                0x0000000000265660                g_arsdk_cmd_desc_Animation_Start_vertical_reveal
                0x0000000000265760                g_arsdk_cmd_desc_Animation_Start_horizontal_reveal
                0x0000000000265820                g_arsdk_cmd_desc_Animation_Start_dronie
                0x00000000002658e0                g_arsdk_cmd_desc_Animation_Start_horizontal_panorama
                0x0000000000265980                g_arsdk_cmd_desc_Animation_Start_flip
                0x00000000002659e0                g_arsdk_cmd_desc_Animation_Cancel
                0x0000000000265ea0                g_arsdk_cmd_desc_Camera_Alignment_offsets
                0x0000000000266020                g_arsdk_cmd_desc_Camera_Next_photo_delay
                0x00000000002660a0                g_arsdk_cmd_desc_Camera_Camera_states
                0x0000000000266100                g_arsdk_cmd_desc_Camera_Autorecord
                0x0000000000266180                g_arsdk_cmd_desc_Camera_Recording_state
                0x0000000000266240                g_arsdk_cmd_desc_Camera_Recording_progress
                0x00000000002662e0                g_arsdk_cmd_desc_Camera_Photo_state
                0x0000000000266380                g_arsdk_cmd_desc_Camera_Photo_progress
                0x0000000000266440                g_arsdk_cmd_desc_Camera_Streaming_mode
                0x00000000002664c0                g_arsdk_cmd_desc_Camera_Photo_mode
                0x00000000002665e0                g_arsdk_cmd_desc_Camera_Recording_mode
                0x00000000002666e0                g_arsdk_cmd_desc_Camera_Camera_mode
                0x0000000000266760                g_arsdk_cmd_desc_Camera_Hdr
                0x0000000000266800                g_arsdk_cmd_desc_Camera_Hdr_setting
                0x0000000000266880                g_arsdk_cmd_desc_Camera_Zoom_velocity_quality_degradation
                0x0000000000266900                g_arsdk_cmd_desc_Camera_Max_zoom_speed
                0x00000000002669c0                g_arsdk_cmd_desc_Camera_Zoom_info
                0x0000000000266a80                g_arsdk_cmd_desc_Camera_Zoom_level
                0x0000000000266b00                g_arsdk_cmd_desc_Camera_Style
                0x0000000000266ca0                g_arsdk_cmd_desc_Camera_Antiflicker_mode
                0x0000000000266d20                g_arsdk_cmd_desc_Camera_Ev_compensation
                0x0000000000266da0                g_arsdk_cmd_desc_Camera_White_balance
                0x0000000000266e60                g_arsdk_cmd_desc_Camera_Exposure
                0x0000000000266fa0                g_arsdk_cmd_desc_Camera_Exposure_settings
                0x0000000000267100                g_arsdk_cmd_desc_Camera_Antiflicker_capabilities
                0x0000000000267160                g_arsdk_cmd_desc_Camera_Photo_capabilities
                0x0000000000267260                g_arsdk_cmd_desc_Camera_Recording_capabilities
                0x0000000000267360                g_arsdk_cmd_desc_Camera_Camera_capabilities
                0x00000000002675e0                g_arsdk_cmd_desc_Camera_Reset_alignment_offsets
                0x0000000000267640                g_arsdk_cmd_desc_Camera_Set_alignment_offsets
                0x0000000000267700                g_arsdk_cmd_desc_Camera_Set_autorecord
                0x0000000000267780                g_arsdk_cmd_desc_Camera_Stop_recording
                0x00000000002677e0                g_arsdk_cmd_desc_Camera_Start_recording
                0x0000000000267840                g_arsdk_cmd_desc_Camera_Stop_photo
                0x00000000002678a0                g_arsdk_cmd_desc_Camera_Take_photo
                0x0000000000267900                g_arsdk_cmd_desc_Camera_Set_streaming_mode
                0x0000000000267980                g_arsdk_cmd_desc_Camera_Set_photo_mode
                0x0000000000267aa0                g_arsdk_cmd_desc_Camera_Set_recording_mode
                0x0000000000267b80                g_arsdk_cmd_desc_Camera_Set_camera_mode
                0x0000000000267c00                g_arsdk_cmd_desc_Camera_Set_hdr_setting
                0x0000000000267c80                g_arsdk_cmd_desc_Camera_Set_zoom_velocity_quality_degradation
                0x0000000000267d00                g_arsdk_cmd_desc_Camera_Set_max_zoom_speed
                0x0000000000267d80                g_arsdk_cmd_desc_Camera_Reset_zoom
                0x0000000000267de0                g_arsdk_cmd_desc_Camera_Set_zoom_target
                0x0000000000267e80                g_arsdk_cmd_desc_Camera_Set_style_params
                0x0000000000267f40                g_arsdk_cmd_desc_Camera_Set_style
                0x0000000000267fc0                g_arsdk_cmd_desc_Camera_Set_antiflicker_mode
                0x0000000000268020                g_arsdk_cmd_desc_Camera_Set_ev_compensation
                0x00000000002680a0                g_arsdk_cmd_desc_Camera_Set_white_balance_lock
                0x0000000000268120                g_arsdk_cmd_desc_Camera_Set_white_balance
                0x00000000002681c0                g_arsdk_cmd_desc_Camera_Unlock_exposure
                0x0000000000268220                g_arsdk_cmd_desc_Camera_Lock_exposure_on_roi
                0x00000000002682c0                g_arsdk_cmd_desc_Camera_Lock_exposure
                0x0000000000268320                g_arsdk_cmd_desc_Camera_Set_exposure_settings
                0x00000000002694a0                g_arsdk_cmd_desc_Thermal_cam_Flat_field_calibration_mode
                0x0000000000269540                g_arsdk_cmd_desc_Thermal_cam_Flat_field_calibration_status
                0x00000000002695e0                g_arsdk_cmd_desc_Thermal_cam_Charging_status
                0x0000000000269680                g_arsdk_cmd_desc_Thermal_cam_Calibration_infos
                0x0000000000269760                g_arsdk_cmd_desc_Thermal_cam_Sensitivity
                0x0000000000269820                g_arsdk_cmd_desc_Thermal_cam_Camera_state
                0x00000000002698c0                g_arsdk_cmd_desc_Thermal_cam_Set_flat_field_calibration_mode
                0x0000000000269940                g_arsdk_cmd_desc_Thermal_cam_Flat_field_calibrate
                0x00000000002699a0                g_arsdk_cmd_desc_Thermal_cam_Set_sensitivity
                0x0000000000269a20                g_arsdk_cmd_desc_Thermal_cam_Deactivate
                0x0000000000269a80                g_arsdk_cmd_desc_Thermal_cam_Activate
                0x0000000000269be0                g_arsdk_cmd_desc_Mapper_mini_Axis_mapping_item
                0x0000000000269ce0                g_arsdk_cmd_desc_Mapper_mini_Button_mapping_item
                0x0000000000269dc0                g_arsdk_cmd_desc_Mapper_mini_Reset_mapping
                0x0000000000269e20                g_arsdk_cmd_desc_Mapper_mini_Map_axis_action
                0x0000000000269ee0                g_arsdk_cmd_desc_Mapper_mini_Map_button_action
                0x000000000026a1a0                g_arsdk_cmd_desc_Controller_info_Validity_from_drone
                0x000000000026a200                g_arsdk_cmd_desc_Controller_info_Barometer
                0x000000000026a280                g_arsdk_cmd_desc_Controller_info_Gps
                0x000000000026a3e0                g_arsdk_cmd_desc_Debug_Tag_notify
                0x000000000026a440                g_arsdk_cmd_desc_Debug_Settings_list
                0x000000000026a4c0                g_arsdk_cmd_desc_Debug_Settings_info
                0x000000000026a620                g_arsdk_cmd_desc_Debug_Tag
                0x000000000026a680                g_arsdk_cmd_desc_Debug_Set_setting
                0x000000000026a700                g_arsdk_cmd_desc_Debug_Get_all_settings
                0x000000000026a7a0                g_arsdk_cmd_desc_Mapper_Volatile_mapping_state
                0x000000000026a800                g_arsdk_cmd_desc_Mapper_Active_product
                0x000000000026a860                g_arsdk_cmd_desc_Mapper_Inverted_map_item
                0x000000000026a940                g_arsdk_cmd_desc_Mapper_Expo_map_item
                0x000000000026aa20                g_arsdk_cmd_desc_Mapper_Application_button_event
                0x000000000026aa80                g_arsdk_cmd_desc_Mapper_Application_axis_event
                0x000000000026ab00                g_arsdk_cmd_desc_Mapper_Axis_mapping_item
                0x000000000026ac00                g_arsdk_cmd_desc_Mapper_Button_mapping_item
                0x000000000026ace0                g_arsdk_cmd_desc_Mapper_Grab_axis_event
                0x000000000026ad60                g_arsdk_cmd_desc_Mapper_Grab_button_event
                0x000000000026ade0                g_arsdk_cmd_desc_Mapper_Grab_state
                0x000000000026ae80                g_arsdk_cmd_desc_Mapper_Exit_volatile_mapping
                0x000000000026aec0                g_arsdk_cmd_desc_Mapper_Enter_volatile_mapping
                0x000000000026af00                g_arsdk_cmd_desc_Mapper_Set_inverted
                0x000000000026afa0                g_arsdk_cmd_desc_Mapper_Set_expo
                0x000000000026b040                g_arsdk_cmd_desc_Mapper_Reset_mapping
                0x000000000026b0a0                g_arsdk_cmd_desc_Mapper_Map_axis_action
                0x000000000026b160                g_arsdk_cmd_desc_Mapper_Map_button_action
                0x000000000026b200                g_arsdk_cmd_desc_Mapper_Grab
                0x000000000026b660                g_arsdk_cmd_desc_Drone_manager_Known_drone_item
                0x000000000026b760                g_arsdk_cmd_desc_Drone_manager_Connection_refused
                0x000000000026b800                g_arsdk_cmd_desc_Drone_manager_Authentication_failed
                0x000000000026b8a0                g_arsdk_cmd_desc_Drone_manager_Connection_state
                0x000000000026b960                g_arsdk_cmd_desc_Drone_manager_Drone_list_item
                0x000000000026bae0                g_arsdk_cmd_desc_Drone_manager_Forget
                0x000000000026bb40                g_arsdk_cmd_desc_Drone_manager_Connect
                0x000000000026bbc0                g_arsdk_cmd_desc_Drone_manager_Discover_drones
                0x000000000026bc80                g_arsdk_cmd_desc_Rc_Channel_action_item
                0x000000000026bd40                g_arsdk_cmd_desc_Rc_Calibration_state
                0x000000000026be20                g_arsdk_cmd_desc_Rc_Channel_value
                0x000000000026bee0                g_arsdk_cmd_desc_Rc_Channels_monitor_state
                0x000000000026bf40                g_arsdk_cmd_desc_Rc_Receiver_state
                0x000000000026bfe0                g_arsdk_cmd_desc_Rc_Enable_receiver
                0x000000000026c040                g_arsdk_cmd_desc_Rc_Reset_calibration
                0x000000000026c080                g_arsdk_cmd_desc_Rc_Abort_calibration
                0x000000000026c0c0                g_arsdk_cmd_desc_Rc_Invert_channel
                0x000000000026c140                g_arsdk_cmd_desc_Rc_Start_calibration
                0x000000000026c1e0                g_arsdk_cmd_desc_Rc_Monitor_channels
                0x000000000026c3c0                g_arsdk_cmd_desc_Wifi_Supported_security_types
                0x000000000026c420                g_arsdk_cmd_desc_Wifi_Supported_countries
                0x000000000026c480                g_arsdk_cmd_desc_Wifi_Rssi_changed
                0x000000000026c4e0                g_arsdk_cmd_desc_Wifi_Environment_changed
                0x000000000026c540                g_arsdk_cmd_desc_Wifi_Country_changed
                0x000000000026c5c0                g_arsdk_cmd_desc_Wifi_Security_changed
                0x000000000026c660                g_arsdk_cmd_desc_Wifi_Ap_channel_changed
                0x000000000026c700                g_arsdk_cmd_desc_Wifi_Authorized_channel
                0x000000000026c7c0                g_arsdk_cmd_desc_Wifi_Scanned_item
                0x000000000026c8a0                g_arsdk_cmd_desc_Wifi_Set_environment
                0x000000000026c900                g_arsdk_cmd_desc_Wifi_Set_country
                0x000000000026c980                g_arsdk_cmd_desc_Wifi_Set_security
                0x000000000026ca20                g_arsdk_cmd_desc_Wifi_Set_ap_channel
                0x000000000026cac0                g_arsdk_cmd_desc_Wifi_Update_authorized_channels
                0x000000000026cb00                g_arsdk_cmd_desc_Wifi_Scan
                0x000000000026cc40                g_arsdk_cmd_desc_Follow_me_Target_is_controller
                0x000000000026cca0                g_arsdk_cmd_desc_Follow_me_Target_image_detection_state
                0x000000000026cd00                g_arsdk_cmd_desc_Follow_me_Target_framing_position_changed
                0x000000000026cd80                g_arsdk_cmd_desc_Follow_me_Dolly_slide_anim_config
                0x000000000026ce40                g_arsdk_cmd_desc_Follow_me_Candle_anim_config
                0x000000000026cee0                g_arsdk_cmd_desc_Follow_me_Boomerang_anim_config
                0x000000000026cf80                g_arsdk_cmd_desc_Follow_me_Swing_anim_config
                0x000000000026d020                g_arsdk_cmd_desc_Follow_me_Helicoid_anim_config
                0x000000000026d0e0                g_arsdk_cmd_desc_Follow_me_Target_trajectory
                0x000000000026d1e0                g_arsdk_cmd_desc_Follow_me_Leash_config
                0x000000000026d2a0                g_arsdk_cmd_desc_Follow_me_Relative_config
                0x000000000026d360                g_arsdk_cmd_desc_Follow_me_Geographic_config
                0x000000000026d420                g_arsdk_cmd_desc_Follow_me_Mode_info
                0x000000000026d4c0                g_arsdk_cmd_desc_Follow_me_State
                0x000000000026d580                g_arsdk_cmd_desc_Follow_me_Set_target_is_controller
                0x000000000026d5e0                g_arsdk_cmd_desc_Follow_me_Target_image_detection
                0x000000000026d6e0                g_arsdk_cmd_desc_Follow_me_Target_framing_position
                0x000000000026d760                g_arsdk_cmd_desc_Follow_me_Start_dolly_slide_anim
                0x000000000026d820                g_arsdk_cmd_desc_Follow_me_Start_candle_anim
                0x000000000026d8c0                g_arsdk_cmd_desc_Follow_me_Start_boomerang_anim
                0x000000000026d960                g_arsdk_cmd_desc_Follow_me_Start_swing_anim
                0x000000000026da00                g_arsdk_cmd_desc_Follow_me_Start_helicoid_anim
                0x000000000026dac0                g_arsdk_cmd_desc_Follow_me_Stop_animation
                0x000000000026db00                g_arsdk_cmd_desc_Follow_me_Configure_leash
                0x000000000026dbc0                g_arsdk_cmd_desc_Follow_me_Configure_relative
                0x000000000026dc80                g_arsdk_cmd_desc_Follow_me_Configure_geographic
                0x000000000026dd40                g_arsdk_cmd_desc_Follow_me_Stop
                0x000000000026dd80                g_arsdk_cmd_desc_Follow_me_Start
                0x000000000026e0e0                g_arsdk_cmd_desc_Generic_Default
                0x000000000026e160                g_arsdk_cmd_desc_Powerup_SoundsState_BuzzChanged
                0x000000000026e1c0                g_arsdk_cmd_desc_Powerup_VideoSettingsState_VideoModeChanged
                0x000000000026e220                g_arsdk_cmd_desc_Powerup_VideoSettingsState_AutorecordChanged
                0x000000000026e280                g_arsdk_cmd_desc_Powerup_MediaStreamingState_VideoEnableChanged
                0x000000000026e2e0                g_arsdk_cmd_desc_Powerup_NetworkState_LinkQualityChanged
                0x000000000026e340                g_arsdk_cmd_desc_Powerup_NetworkState_AllWifiAuthChannelChanged
                0x000000000026e380                g_arsdk_cmd_desc_Powerup_NetworkState_WifiAuthChannelListChanged
                0x000000000026e420                g_arsdk_cmd_desc_Powerup_NetworkState_AllWifiScanChanged
                0x000000000026e460                g_arsdk_cmd_desc_Powerup_NetworkState_WifiScanListChanged
                0x000000000026e520                g_arsdk_cmd_desc_Powerup_NetworkSettingsState_WifiSelectionChanged
                0x000000000026e5c0                g_arsdk_cmd_desc_Powerup_MediaRecordEvent_VideoEventChanged
                0x000000000026e640                g_arsdk_cmd_desc_Powerup_MediaRecordEvent_PictureEventChanged
                0x000000000026e6c0                g_arsdk_cmd_desc_Powerup_MediaRecordState_VideoStateChangedV2
                0x000000000026e740                g_arsdk_cmd_desc_Powerup_MediaRecordState_PictureStateChangedV2
                0x000000000026e7c0                g_arsdk_cmd_desc_Powerup_PilotingSettingsState_SettingChanged
                0x000000000026e8a0                g_arsdk_cmd_desc_Powerup_PilotingState_AltitudeChanged
                0x000000000026e900                g_arsdk_cmd_desc_Powerup_PilotingState_AttitudeChanged
                0x000000000026e9a0                g_arsdk_cmd_desc_Powerup_PilotingState_MotorModeChanged
                0x000000000026ea00                g_arsdk_cmd_desc_Powerup_PilotingState_FlyingStateChanged
                0x000000000026ea60                g_arsdk_cmd_desc_Powerup_PilotingState_AlertStateChanged
                0x000000000026eac0                g_arsdk_cmd_desc_Powerup_Sounds_Buzz
                0x000000000026eb20                g_arsdk_cmd_desc_Powerup_VideoSettings_VideoMode
                0x000000000026eb80                g_arsdk_cmd_desc_Powerup_VideoSettings_Autorecord
                0x000000000026ebe0                g_arsdk_cmd_desc_Powerup_MediaStreaming_VideoEnable
                0x000000000026ec40                g_arsdk_cmd_desc_Powerup_Network_WifiAuthChannel
                0x000000000026ec80                g_arsdk_cmd_desc_Powerup_Network_WifiScan
                0x000000000026ece0                g_arsdk_cmd_desc_Powerup_NetworkSettings_WifiSelection
                0x000000000026ed80                g_arsdk_cmd_desc_Powerup_MediaRecord_VideoV2
                0x000000000026ede0                g_arsdk_cmd_desc_Powerup_MediaRecord_PictureV2
                0x000000000026ee20                g_arsdk_cmd_desc_Powerup_PilotingSettings_Set
                0x000000000026eea0                g_arsdk_cmd_desc_Powerup_Piloting_MotorMode
                0x000000000026ef00                g_arsdk_cmd_desc_Powerup_Piloting_UserTakeOff
                0x000000000026ef60                g_arsdk_cmd_desc_Powerup_Piloting_PCMD
                0x000000000026f7c0                g_arsdk_cmd_desc_Skyctrl_CommonEventState_Shutdown
                0x000000000026f820                g_arsdk_cmd_desc_Skyctrl_ButtonEvents_Settings
                0x000000000026f860                g_arsdk_cmd_desc_Skyctrl_CalibrationState_MagnetoCalibrationStateV2
                0x000000000026f8c0                g_arsdk_cmd_desc_Skyctrl_CalibrationState_MagnetoCalibrationQualityUpdatesState
                0x000000000026f920                g_arsdk_cmd_desc_Skyctrl_CalibrationState_MagnetoCalibrationState
                0x000000000026f9e0                g_arsdk_cmd_desc_Skyctrl_CoPilotingState_PilotingSource
                0x000000000026fa40                g_arsdk_cmd_desc_Skyctrl_AxisFiltersState_AllPresetFiltersSent
                0x000000000026fa80                g_arsdk_cmd_desc_Skyctrl_AxisFiltersState_PresetAxisFilters
                0x000000000026fb00                g_arsdk_cmd_desc_Skyctrl_AxisFiltersState_AllCurrentFiltersSent
                0x000000000026fb40                g_arsdk_cmd_desc_Skyctrl_AxisFiltersState_CurrentAxisFilters
                0x000000000026fbc0                g_arsdk_cmd_desc_Skyctrl_AxisMappingsState_AllAvailableAxisMappingsSent
                0x000000000026fc00                g_arsdk_cmd_desc_Skyctrl_AxisMappingsState_AvailableAxisMappings
                0x000000000026fc80                g_arsdk_cmd_desc_Skyctrl_AxisMappingsState_AllCurrentAxisMappingsSent
                0x000000000026fcc0                g_arsdk_cmd_desc_Skyctrl_AxisMappingsState_CurrentAxisMappings
                0x000000000026fd40                g_arsdk_cmd_desc_Skyctrl_ButtonMappingsState_AllAvailableButtonsMappingsSent
                0x000000000026fd80                g_arsdk_cmd_desc_Skyctrl_ButtonMappingsState_AvailableButtonMappings
                0x000000000026fe00                g_arsdk_cmd_desc_Skyctrl_ButtonMappingsState_AllCurrentButtonMappingsSent
                0x000000000026fe40                g_arsdk_cmd_desc_Skyctrl_ButtonMappingsState_CurrentButtonMappings
                0x000000000026fec0                g_arsdk_cmd_desc_Skyctrl_GamepadInfosState_AllGamepadControlsSent
                0x000000000026ff00                g_arsdk_cmd_desc_Skyctrl_GamepadInfosState_GamepadControl
                0x000000000026ffa0                g_arsdk_cmd_desc_Skyctrl_AccessPointSettingsState_WifiSecurityChanged
                0x0000000000270020                g_arsdk_cmd_desc_Skyctrl_AccessPointSettingsState_WifiSelectionChanged
                0x00000000002700c0                g_arsdk_cmd_desc_Skyctrl_AccessPointSettingsState_AccessPointChannelChanged
                0x0000000000270120                g_arsdk_cmd_desc_Skyctrl_AccessPointSettingsState_AccessPointSSIDChanged
                0x0000000000270180                g_arsdk_cmd_desc_Skyctrl_SkyControllerState_AttitudeChanged
                0x0000000000270240                g_arsdk_cmd_desc_Skyctrl_SkyControllerState_BatteryState
                0x00000000002702a0                g_arsdk_cmd_desc_Skyctrl_SkyControllerState_GpsPositionChanged
                0x0000000000270360                g_arsdk_cmd_desc_Skyctrl_SkyControllerState_GpsFixChanged
                0x00000000002703c0                g_arsdk_cmd_desc_Skyctrl_SkyControllerState_BatteryChanged
                0x0000000000270420                g_arsdk_cmd_desc_Skyctrl_CommonState_CurrentDateTimeChanged
                0x0000000000270480                g_arsdk_cmd_desc_Skyctrl_CommonState_AllStatesChanged
                0x00000000002704c0                g_arsdk_cmd_desc_Skyctrl_SettingsState_CPUID
                0x0000000000270520                g_arsdk_cmd_desc_Skyctrl_SettingsState_ProductVersionChanged
                0x00000000002705a0                g_arsdk_cmd_desc_Skyctrl_SettingsState_ProductVariantChanged
                0x0000000000270600                g_arsdk_cmd_desc_Skyctrl_SettingsState_ProductSerialChanged
                0x0000000000270660                g_arsdk_cmd_desc_Skyctrl_SettingsState_ResetChanged
                0x00000000002706a0                g_arsdk_cmd_desc_Skyctrl_SettingsState_AllSettingsChanged
                0x00000000002706e0                g_arsdk_cmd_desc_Skyctrl_DeviceState_ConnexionChanged
                0x0000000000270780                g_arsdk_cmd_desc_Skyctrl_DeviceState_DeviceList
                0x00000000002707e0                g_arsdk_cmd_desc_Skyctrl_WifiState_WifiEnvironmentChanged
                0x0000000000270840                g_arsdk_cmd_desc_Skyctrl_WifiState_WifiCountryChanged
                0x00000000002708a0                g_arsdk_cmd_desc_Skyctrl_WifiState_WifiAuthChannelListChangedV2
                0x0000000000270960                g_arsdk_cmd_desc_Skyctrl_WifiState_WifiSignalChanged
                0x00000000002709c0                g_arsdk_cmd_desc_Skyctrl_WifiState_AllWifiAuthChannelChanged
                0x0000000000270a00                g_arsdk_cmd_desc_Skyctrl_WifiState_WifiAuthChannelListChanged
                0x0000000000270aa0                g_arsdk_cmd_desc_Skyctrl_WifiState_ConnexionChanged
                0x0000000000270b20                g_arsdk_cmd_desc_Skyctrl_WifiState_WifiList
                0x0000000000270c20                g_arsdk_cmd_desc_Skyctrl_Factory_Reset
                0x0000000000270c60                g_arsdk_cmd_desc_Skyctrl_Calibration_AbortCalibration
                0x0000000000270ca0                g_arsdk_cmd_desc_Skyctrl_Calibration_StartCalibration
                0x0000000000270ce0                g_arsdk_cmd_desc_Skyctrl_Calibration_EnableMagnetoCalibrationQualityUpdates
                0x0000000000270d40                g_arsdk_cmd_desc_Skyctrl_CoPiloting_SetPilotingSource
                0x0000000000270da0                g_arsdk_cmd_desc_Skyctrl_AxisFilters_DefaultAxisFilters
                0x0000000000270de0                g_arsdk_cmd_desc_Skyctrl_AxisFilters_SetAxisFilter
                0x0000000000270e60                g_arsdk_cmd_desc_Skyctrl_AxisFilters_GetPresetAxisFilters
                0x0000000000270ea0                g_arsdk_cmd_desc_Skyctrl_AxisFilters_GetCurrentAxisFilters
                0x0000000000270ee0                g_arsdk_cmd_desc_Skyctrl_AxisMappings_DefaultAxisMapping
                0x0000000000270f20                g_arsdk_cmd_desc_Skyctrl_AxisMappings_SetAxisMapping
                0x0000000000270fa0                g_arsdk_cmd_desc_Skyctrl_AxisMappings_GetAvailableAxisMappings
                0x0000000000270fe0                g_arsdk_cmd_desc_Skyctrl_AxisMappings_GetCurrentAxisMappings
                0x0000000000271020                g_arsdk_cmd_desc_Skyctrl_ButtonMappings_DefaultButtonMapping
                0x0000000000271060                g_arsdk_cmd_desc_Skyctrl_ButtonMappings_SetButtonMapping
                0x00000000002710e0                g_arsdk_cmd_desc_Skyctrl_ButtonMappings_GetAvailableButtonMappings
                0x0000000000271120                g_arsdk_cmd_desc_Skyctrl_ButtonMappings_GetCurrentButtonMappings
                0x0000000000271160                g_arsdk_cmd_desc_Skyctrl_GamepadInfos_GetGamepadControls
                0x00000000002711a0                g_arsdk_cmd_desc_Skyctrl_Camera_ResetOrientation
                0x00000000002711e0                g_arsdk_cmd_desc_Skyctrl_AccessPointSettings_WifiSecurity
                0x0000000000271260                g_arsdk_cmd_desc_Skyctrl_AccessPointSettings_WifiSelection
                0x0000000000271300                g_arsdk_cmd_desc_Skyctrl_AccessPointSettings_AccessPointChannel
                0x0000000000271360                g_arsdk_cmd_desc_Skyctrl_AccessPointSettings_AccessPointSSID
                0x00000000002713c0                g_arsdk_cmd_desc_Skyctrl_Common_CurrentDateTime
                0x0000000000271420                g_arsdk_cmd_desc_Skyctrl_Common_AllStates
                0x0000000000271460                g_arsdk_cmd_desc_Skyctrl_Settings_Reset
                0x00000000002714a0                g_arsdk_cmd_desc_Skyctrl_Settings_AllSettings
                0x00000000002714e0                g_arsdk_cmd_desc_Skyctrl_Device_ConnectToDevice
                0x0000000000271540                g_arsdk_cmd_desc_Skyctrl_Device_RequestCurrentDevice
                0x0000000000271580                g_arsdk_cmd_desc_Skyctrl_Device_RequestDeviceList
                0x00000000002715c0                g_arsdk_cmd_desc_Skyctrl_Wifi_WifiAuthChannel
                0x0000000000271600                g_arsdk_cmd_desc_Skyctrl_Wifi_ForgetWifi
                0x0000000000271660                g_arsdk_cmd_desc_Skyctrl_Wifi_ConnectToWifi
                0x0000000000271700                g_arsdk_cmd_desc_Skyctrl_Wifi_RequestCurrentWifi
                0x0000000000271740                g_arsdk_cmd_desc_Skyctrl_Wifi_RequestWifiList
                0x0000000000271ae0                g_arsdk_cmd_desc_Jpsumo_VideoSettingsState_AutorecordChanged
                0x0000000000271b40                g_arsdk_cmd_desc_Jpsumo_MediaStreamingState_VideoEnableChanged
                0x0000000000271ba0                g_arsdk_cmd_desc_Jpsumo_SpeedSettingsState_OutdoorChanged
                0x0000000000271c00                g_arsdk_cmd_desc_Jpsumo_RoadPlanState_PlayScriptChanged
                0x0000000000271c60                g_arsdk_cmd_desc_Jpsumo_RoadPlanState_ScriptDeleteChanged
                0x0000000000271cc0                g_arsdk_cmd_desc_Jpsumo_RoadPlanState_ScriptUploadChanged
                0x0000000000271d20                g_arsdk_cmd_desc_Jpsumo_RoadPlanState_AllScriptsMetadataChanged
                0x0000000000271d60                g_arsdk_cmd_desc_Jpsumo_RoadPlanState_ScriptMetadataListChanged
                0x0000000000271e40                g_arsdk_cmd_desc_Jpsumo_AudioSettingsState_ThemeChanged
                0x0000000000271ea0                g_arsdk_cmd_desc_Jpsumo_AudioSettingsState_MasterVolumeChanged
                0x0000000000271f00                g_arsdk_cmd_desc_Jpsumo_NetworkState_LinkQualityChanged
                0x0000000000271f60                g_arsdk_cmd_desc_Jpsumo_NetworkState_AllWifiAuthChannelChanged
                0x0000000000271fa0                g_arsdk_cmd_desc_Jpsumo_NetworkState_WifiAuthChannelListChanged
                0x0000000000272040                g_arsdk_cmd_desc_Jpsumo_NetworkState_AllWifiScanChanged
                0x0000000000272080                g_arsdk_cmd_desc_Jpsumo_NetworkState_WifiScanListChanged
                0x0000000000272140                g_arsdk_cmd_desc_Jpsumo_NetworkSettingsState_WifiSelectionChanged
                0x00000000002721e0                g_arsdk_cmd_desc_Jpsumo_MediaRecordEvent_VideoEventChanged
                0x0000000000272260                g_arsdk_cmd_desc_Jpsumo_MediaRecordEvent_PictureEventChanged
                0x00000000002722e0                g_arsdk_cmd_desc_Jpsumo_MediaRecordState_VideoStateChangedV2
                0x0000000000272360                g_arsdk_cmd_desc_Jpsumo_MediaRecordState_PictureStateChangedV2
                0x00000000002723e0                g_arsdk_cmd_desc_Jpsumo_MediaRecordState_VideoStateChanged
                0x0000000000272460                g_arsdk_cmd_desc_Jpsumo_MediaRecordState_PictureStateChanged
                0x00000000002724e0                g_arsdk_cmd_desc_Jpsumo_SettingsState_ProductGPSVersionChanged
                0x0000000000272560                g_arsdk_cmd_desc_Jpsumo_AnimationsState_JumpMotorProblemChanged
                0x00000000002725c0                g_arsdk_cmd_desc_Jpsumo_AnimationsState_JumpTypeChanged
                0x0000000000272620                g_arsdk_cmd_desc_Jpsumo_AnimationsState_JumpLoadChanged
                0x0000000000272680                g_arsdk_cmd_desc_Jpsumo_PilotingState_SpeedChanged
                0x0000000000272700                g_arsdk_cmd_desc_Jpsumo_PilotingState_AlertStateChanged
                0x0000000000272760                g_arsdk_cmd_desc_Jpsumo_PilotingState_PostureChanged
                0x00000000002727c0                g_arsdk_cmd_desc_Jpsumo_VideoSettings_Autorecord
                0x0000000000272820                g_arsdk_cmd_desc_Jpsumo_MediaStreaming_VideoEnable
                0x0000000000272880                g_arsdk_cmd_desc_Jpsumo_SpeedSettings_Outdoor
                0x00000000002728e0                g_arsdk_cmd_desc_Jpsumo_RoadPlan_PlayScript
                0x0000000000272940                g_arsdk_cmd_desc_Jpsumo_RoadPlan_ScriptDelete
                0x00000000002729a0                g_arsdk_cmd_desc_Jpsumo_RoadPlan_ScriptUploaded
                0x0000000000272a20                g_arsdk_cmd_desc_Jpsumo_RoadPlan_AllScriptsMetadata
                0x0000000000272a60                g_arsdk_cmd_desc_Jpsumo_AudioSettings_Theme
                0x0000000000272ac0                g_arsdk_cmd_desc_Jpsumo_AudioSettings_MasterVolume
                0x0000000000272b20                g_arsdk_cmd_desc_Jpsumo_Network_WifiAuthChannel
                0x0000000000272b60                g_arsdk_cmd_desc_Jpsumo_Network_WifiScan
                0x0000000000272bc0                g_arsdk_cmd_desc_Jpsumo_NetworkSettings_WifiSelection
                0x0000000000272c60                g_arsdk_cmd_desc_Jpsumo_MediaRecord_VideoV2
                0x0000000000272cc0                g_arsdk_cmd_desc_Jpsumo_MediaRecord_PictureV2
                0x0000000000272d00                g_arsdk_cmd_desc_Jpsumo_MediaRecord_Video
                0x0000000000272d80                g_arsdk_cmd_desc_Jpsumo_MediaRecord_Picture
                0x0000000000272de0                g_arsdk_cmd_desc_Jpsumo_Animations_SimpleAnimation
                0x0000000000272e40                g_arsdk_cmd_desc_Jpsumo_Animations_Jump
                0x0000000000272ea0                g_arsdk_cmd_desc_Jpsumo_Animations_JumpLoad
                0x0000000000272ee0                g_arsdk_cmd_desc_Jpsumo_Animations_JumpCancel
                0x0000000000272f20                g_arsdk_cmd_desc_Jpsumo_Animations_JumpStop
                0x0000000000272f60                g_arsdk_cmd_desc_Jpsumo_Piloting_AddCapOffset
                0x0000000000272fc0                g_arsdk_cmd_desc_Jpsumo_Piloting_Posture
                0x0000000000273020                g_arsdk_cmd_desc_Jpsumo_Piloting_PCMD
                0x0000000000273940                g_arsdk_cmd_desc_Minidrone_RemoteControllerState_BatteryLevel
                0x00000000002739a0                g_arsdk_cmd_desc_Minidrone_RemoteControllerState_RawCommands
                0x0000000000273a80                g_arsdk_cmd_desc_Minidrone_RemoteControllerState_RawMode
                0x0000000000273ae0                g_arsdk_cmd_desc_Minidrone_RemoteControllerState_TakePictureButtonPressed
                0x0000000000273b20                g_arsdk_cmd_desc_Minidrone_RemoteControllerState_RecordButtonPressed
                0x0000000000273b60                g_arsdk_cmd_desc_Minidrone_RemoteControllerState_ConnectionChanged
                0x0000000000273bc0                g_arsdk_cmd_desc_Minidrone_VideoSettingsState_VideoResolutionChanged
                0x0000000000273c20                g_arsdk_cmd_desc_Minidrone_VideoSettingsState_ElectricFrequencyChanged
                0x0000000000273c80                g_arsdk_cmd_desc_Minidrone_VideoSettingsState_AutorecordChanged
                0x0000000000273ce0                g_arsdk_cmd_desc_Minidrone_MinicamState_MassStorageFormatChanged
                0x0000000000273d40                g_arsdk_cmd_desc_Minidrone_MinicamState_VideoStateChanged
                0x0000000000273dc0                g_arsdk_cmd_desc_Minidrone_MinicamState_PictureChanged
                0x0000000000273e40                g_arsdk_cmd_desc_Minidrone_MinicamState_VersionChanged
                0x0000000000273ec0                g_arsdk_cmd_desc_Minidrone_MinicamState_StateChanged
                0x0000000000273f20                g_arsdk_cmd_desc_Minidrone_MinicamState_ProductSerialChanged
                0x0000000000273f80                g_arsdk_cmd_desc_Minidrone_MinicamState_PowerModeChanged
                0x0000000000273fe0                g_arsdk_cmd_desc_Minidrone_NavigationDataState_DroneQuaternion
                0x00000000002740c0                g_arsdk_cmd_desc_Minidrone_NavigationDataState_DroneAltitude
                0x0000000000274140                g_arsdk_cmd_desc_Minidrone_NavigationDataState_DroneSpeed
                0x0000000000274200                g_arsdk_cmd_desc_Minidrone_NavigationDataState_DronePosition
                0x00000000002742e0                g_arsdk_cmd_desc_Minidrone_UsbAccessoryState_GunState
                0x0000000000274380                g_arsdk_cmd_desc_Minidrone_UsbAccessoryState_ClawState
                0x0000000000274420                g_arsdk_cmd_desc_Minidrone_UsbAccessoryState_LightState
                0x00000000002744e0                g_arsdk_cmd_desc_Minidrone_FloodControlState_FloodControlChanged
                0x0000000000274540                g_arsdk_cmd_desc_Minidrone_SettingsState_CutOutModeChanged
                0x00000000002745a0                g_arsdk_cmd_desc_Minidrone_SettingsState_ProductInertialVersionChanged
                0x0000000000274620                g_arsdk_cmd_desc_Minidrone_SettingsState_ProductMotorsVersionChanged
                0x00000000002746e0                g_arsdk_cmd_desc_Minidrone_SpeedSettingsState_MaxPlaneModeRotationSpeedChanged
                0x0000000000274780                g_arsdk_cmd_desc_Minidrone_SpeedSettingsState_MaxHorizontalSpeedChanged
                0x0000000000274820                g_arsdk_cmd_desc_Minidrone_SpeedSettingsState_WheelsChanged
                0x0000000000274880                g_arsdk_cmd_desc_Minidrone_SpeedSettingsState_MaxRotationSpeedChanged
                0x0000000000274920                g_arsdk_cmd_desc_Minidrone_SpeedSettingsState_MaxVerticalSpeedChanged
                0x00000000002749c0                g_arsdk_cmd_desc_Minidrone_PilotingSettingsState_PreferredPilotingModeChanged
                0x0000000000274a20                g_arsdk_cmd_desc_Minidrone_PilotingSettingsState_MaxThrottleChanged
                0x0000000000274a80                g_arsdk_cmd_desc_Minidrone_PilotingSettingsState_BankedTurnChanged
                0x0000000000274ae0                g_arsdk_cmd_desc_Minidrone_PilotingSettingsState_MaxTiltChanged
                0x0000000000274b80                g_arsdk_cmd_desc_Minidrone_PilotingSettingsState_MaxAltitudeChanged
                0x0000000000274c20                g_arsdk_cmd_desc_Minidrone_MediaRecordEvent_PictureEventChanged
                0x0000000000274ca0                g_arsdk_cmd_desc_Minidrone_MediaRecordState_PictureStateChangedV2
                0x0000000000274d20                g_arsdk_cmd_desc_Minidrone_MediaRecordState_PictureStateChanged
                0x0000000000274da0                g_arsdk_cmd_desc_Minidrone_PilotingState_PilotingModeChanged
                0x0000000000274e00                g_arsdk_cmd_desc_Minidrone_PilotingState_PlaneGearBoxChanged
                0x0000000000274e60                g_arsdk_cmd_desc_Minidrone_PilotingState_FlyingModeChanged
                0x0000000000274ec0                g_arsdk_cmd_desc_Minidrone_PilotingState_AutoTakeOffModeChanged
                0x0000000000274f20                g_arsdk_cmd_desc_Minidrone_PilotingState_AlertStateChanged
                0x0000000000274f80                g_arsdk_cmd_desc_Minidrone_PilotingState_FlyingStateChanged
                0x0000000000274fe0                g_arsdk_cmd_desc_Minidrone_PilotingState_FlatTrimChanged
                0x0000000000275020                g_arsdk_cmd_desc_Minidrone_Minicam_MassStorageFormat
                0x0000000000275060                g_arsdk_cmd_desc_Minidrone_Minicam_Video
                0x00000000002750c0                g_arsdk_cmd_desc_Minidrone_Minicam_Picture
                0x0000000000275100                g_arsdk_cmd_desc_Minidrone_VideoSettings_VideoResolution
                0x0000000000275160                g_arsdk_cmd_desc_Minidrone_VideoSettings_ElectricFrequency
                0x00000000002751c0                g_arsdk_cmd_desc_Minidrone_VideoSettings_Autorecord
                0x0000000000275220                g_arsdk_cmd_desc_Minidrone_RemoteController_RawMode
                0x0000000000275280                g_arsdk_cmd_desc_Minidrone_RemoteController_SetPairedRemote
                0x0000000000275320                g_arsdk_cmd_desc_Minidrone_UsbAccessory_GunControl
                0x00000000002753a0                g_arsdk_cmd_desc_Minidrone_UsbAccessory_ClawControl
                0x0000000000275420                g_arsdk_cmd_desc_Minidrone_UsbAccessory_LightControl
                0x00000000002754c0                g_arsdk_cmd_desc_Minidrone_Configuration_ControllerName
                0x0000000000275520                g_arsdk_cmd_desc_Minidrone_Configuration_ControllerType
                0x0000000000275580                g_arsdk_cmd_desc_Minidrone_GPS_ControllerLongitudeForRun
                0x00000000002755e0                g_arsdk_cmd_desc_Minidrone_GPS_ControllerLatitudeForRun
                0x0000000000275640                g_arsdk_cmd_desc_Minidrone_Settings_CutOutMode
                0x00000000002756a0                g_arsdk_cmd_desc_Minidrone_SpeedSettings_MaxPlaneModeRotationSpeed
                0x0000000000275700                g_arsdk_cmd_desc_Minidrone_SpeedSettings_MaxHorizontalSpeed
                0x0000000000275760                g_arsdk_cmd_desc_Minidrone_SpeedSettings_Wheels
                0x00000000002757c0                g_arsdk_cmd_desc_Minidrone_SpeedSettings_MaxRotationSpeed
                0x0000000000275820                g_arsdk_cmd_desc_Minidrone_SpeedSettings_MaxVerticalSpeed
                0x0000000000275880                g_arsdk_cmd_desc_Minidrone_PilotingSettings_PreferredPilotingMode
                0x00000000002758e0                g_arsdk_cmd_desc_Minidrone_PilotingSettings_MaxThrottle
                0x0000000000275940                g_arsdk_cmd_desc_Minidrone_PilotingSettings_BankedTurn
                0x00000000002759a0                g_arsdk_cmd_desc_Minidrone_PilotingSettings_MaxTilt
                0x0000000000275a00                g_arsdk_cmd_desc_Minidrone_PilotingSettings_MaxAltitude
                0x0000000000275a60                g_arsdk_cmd_desc_Minidrone_MediaRecord_PictureV2
                0x0000000000275aa0                g_arsdk_cmd_desc_Minidrone_MediaRecord_Picture
                0x0000000000275b00                g_arsdk_cmd_desc_Minidrone_Animations_Cap
                0x0000000000275b60                g_arsdk_cmd_desc_Minidrone_Animations_Flip
                0x0000000000275bc0                g_arsdk_cmd_desc_Minidrone_Piloting_TogglePilotingMode
                0x0000000000275c00                g_arsdk_cmd_desc_Minidrone_Piloting_PlaneGearBox
                0x0000000000275c60                g_arsdk_cmd_desc_Minidrone_Piloting_FlyingMode
                0x0000000000275cc0                g_arsdk_cmd_desc_Minidrone_Piloting_AutoTakeOffMode
                0x0000000000275d20                g_arsdk_cmd_desc_Minidrone_Piloting_Emergency
                0x0000000000275d60                g_arsdk_cmd_desc_Minidrone_Piloting_Landing
                0x0000000000275da0                g_arsdk_cmd_desc_Minidrone_Piloting_PCMD
                0x0000000000275ea0                g_arsdk_cmd_desc_Minidrone_Piloting_TakeOff
                0x0000000000275ee0                g_arsdk_cmd_desc_Minidrone_Piloting_FlatTrim
                0x00000000002766e0                g_arsdk_cmd_desc_Ardrone3_SoundState_AlertSound
                0x0000000000276740                g_arsdk_cmd_desc_Ardrone3_AccessoryState_Battery
                0x00000000002767e0                g_arsdk_cmd_desc_Ardrone3_AccessoryState_ConnectedAccessories
                0x00000000002768c0                g_arsdk_cmd_desc_Ardrone3_PROState_Features
                0x0000000000276920                g_arsdk_cmd_desc_Ardrone3_GPSState_HomeTypeChosenChanged
                0x0000000000276980                g_arsdk_cmd_desc_Ardrone3_GPSState_HomeTypeAvailabilityChanged
                0x0000000000276a00                g_arsdk_cmd_desc_Ardrone3_GPSState_NumberOfSatelliteChanged
                0x0000000000276a60                g_arsdk_cmd_desc_Ardrone3_AntiflickeringState_ModeChanged
                0x0000000000276ac0                g_arsdk_cmd_desc_Ardrone3_AntiflickeringState_ElectricFrequencyChanged
                0x0000000000276b20                g_arsdk_cmd_desc_Ardrone3_CameraState_VelocityRange
                0x0000000000276ba0                g_arsdk_cmd_desc_Ardrone3_CameraState_DefaultCameraOrientationV2
                0x0000000000276c20                g_arsdk_cmd_desc_Ardrone3_CameraState_OrientationV2
                0x0000000000276ca0                g_arsdk_cmd_desc_Ardrone3_CameraState_DefaultCameraOrientation
                0x0000000000276d20                g_arsdk_cmd_desc_Ardrone3_CameraState_Orientation
                0x0000000000276da0                g_arsdk_cmd_desc_Ardrone3_GPSSettingsState_ReturnHomeMinAltitudeChanged
                0x0000000000276e40                g_arsdk_cmd_desc_Ardrone3_GPSSettingsState_GeofenceCenterChanged
                0x0000000000276ec0                g_arsdk_cmd_desc_Ardrone3_GPSSettingsState_ReturnHomeDelayChanged
                0x0000000000276f20                g_arsdk_cmd_desc_Ardrone3_GPSSettingsState_HomeTypeChanged
                0x0000000000276f80                g_arsdk_cmd_desc_Ardrone3_GPSSettingsState_GPSUpdateStateChanged
                0x0000000000276fe0                g_arsdk_cmd_desc_Ardrone3_GPSSettingsState_GPSFixStateChanged
                0x0000000000277040                g_arsdk_cmd_desc_Ardrone3_GPSSettingsState_ResetHomeChanged
                0x00000000002770e0                g_arsdk_cmd_desc_Ardrone3_GPSSettingsState_HomeChanged
                0x0000000000277180                g_arsdk_cmd_desc_Ardrone3_MediaStreamingState_VideoStreamModeChanged
                0x00000000002771e0                g_arsdk_cmd_desc_Ardrone3_MediaStreamingState_VideoEnableChanged
                0x0000000000277240                g_arsdk_cmd_desc_Ardrone3_PictureSettingsState_VideoResolutionsChanged
                0x00000000002772a0                g_arsdk_cmd_desc_Ardrone3_PictureSettingsState_VideoFramerateChanged
                0x0000000000277300                g_arsdk_cmd_desc_Ardrone3_PictureSettingsState_VideoRecordingModeChanged
                0x0000000000277360                g_arsdk_cmd_desc_Ardrone3_PictureSettingsState_VideoStabilizationModeChanged
                0x00000000002773c0                g_arsdk_cmd_desc_Ardrone3_PictureSettingsState_VideoAutorecordChanged
                0x0000000000277440                g_arsdk_cmd_desc_Ardrone3_PictureSettingsState_TimelapseChanged
                0x0000000000277500                g_arsdk_cmd_desc_Ardrone3_PictureSettingsState_SaturationChanged
                0x00000000002775a0                g_arsdk_cmd_desc_Ardrone3_PictureSettingsState_ExpositionChanged
                0x0000000000277640                g_arsdk_cmd_desc_Ardrone3_PictureSettingsState_AutoWhiteBalanceChanged
                0x00000000002776a0                g_arsdk_cmd_desc_Ardrone3_PictureSettingsState_PictureFormatChanged
                0x0000000000277700                g_arsdk_cmd_desc_Ardrone3_SettingsState_CPUID
                0x0000000000277760                g_arsdk_cmd_desc_Ardrone3_SettingsState_P7ID
                0x00000000002777c0                g_arsdk_cmd_desc_Ardrone3_SettingsState_MotorErrorLastErrorChanged
                0x0000000000277820                g_arsdk_cmd_desc_Ardrone3_SettingsState_MotorFlightsStatusChanged
                0x00000000002778c0                g_arsdk_cmd_desc_Ardrone3_SettingsState_MotorSoftwareVersionChanged
                0x0000000000277920                g_arsdk_cmd_desc_Ardrone3_SettingsState_MotorErrorStateChanged
                0x00000000002779a0                g_arsdk_cmd_desc_Ardrone3_SettingsState_ProductGPSVersionChanged
                0x0000000000277a20                g_arsdk_cmd_desc_Ardrone3_SettingsState_ProductMotorVersionListChanged
                0x0000000000277ae0                g_arsdk_cmd_desc_Ardrone3_NetworkSettingsState_WifiSecurity
                0x0000000000277b80                g_arsdk_cmd_desc_Ardrone3_NetworkSettingsState_WifiSecurityChanged
                0x0000000000277be0                g_arsdk_cmd_desc_Ardrone3_NetworkSettingsState_WifiSelectionChanged
                0x0000000000277c80                g_arsdk_cmd_desc_Ardrone3_SpeedSettingsState_MaxPitchRollRotationSpeedChanged
                0x0000000000277d20                g_arsdk_cmd_desc_Ardrone3_SpeedSettingsState_OutdoorChanged
                0x0000000000277d80                g_arsdk_cmd_desc_Ardrone3_SpeedSettingsState_HullProtectionChanged
                0x0000000000277de0                g_arsdk_cmd_desc_Ardrone3_SpeedSettingsState_MaxRotationSpeedChanged
                0x0000000000277e80                g_arsdk_cmd_desc_Ardrone3_SpeedSettingsState_MaxVerticalSpeedChanged
                0x0000000000277f20                g_arsdk_cmd_desc_Ardrone3_PilotingSettingsState_MotionDetection
                0x0000000000277f80                g_arsdk_cmd_desc_Ardrone3_PilotingSettingsState_PitchModeChanged
                0x0000000000277fe0                g_arsdk_cmd_desc_Ardrone3_PilotingSettingsState_CirclingAltitudeChanged
                0x0000000000278080                g_arsdk_cmd_desc_Ardrone3_PilotingSettingsState_CirclingRadiusChanged
                0x0000000000278120                g_arsdk_cmd_desc_Ardrone3_PilotingSettingsState_CirclingDirectionChanged
                0x0000000000278180                g_arsdk_cmd_desc_Ardrone3_PilotingSettingsState_MinAltitudeChanged
                0x0000000000278220                g_arsdk_cmd_desc_Ardrone3_PilotingSettingsState_BankedTurnChanged
                0x0000000000278280                g_arsdk_cmd_desc_Ardrone3_PilotingSettingsState_NoFlyOverMaxDistanceChanged
                0x00000000002782e0                g_arsdk_cmd_desc_Ardrone3_PilotingSettingsState_MaxDistanceChanged
                0x0000000000278380                g_arsdk_cmd_desc_Ardrone3_PilotingSettingsState_AbsolutControlChanged
                0x00000000002783e0                g_arsdk_cmd_desc_Ardrone3_PilotingSettingsState_MaxTiltChanged
                0x0000000000278480                g_arsdk_cmd_desc_Ardrone3_PilotingSettingsState_MaxAltitudeChanged
                0x0000000000278520                g_arsdk_cmd_desc_Ardrone3_NetworkState_AllWifiAuthChannelChanged
                0x0000000000278560                g_arsdk_cmd_desc_Ardrone3_NetworkState_WifiAuthChannelListChanged
                0x0000000000278600                g_arsdk_cmd_desc_Ardrone3_NetworkState_AllWifiScanChanged
                0x0000000000278640                g_arsdk_cmd_desc_Ardrone3_NetworkState_WifiScanListChanged
                0x0000000000278700                g_arsdk_cmd_desc_Ardrone3_PilotingEvent_MoveByEnd
                0x00000000002787e0                g_arsdk_cmd_desc_Ardrone3_PilotingState_HeadingLockedStateChanged
                0x0000000000278840                g_arsdk_cmd_desc_Ardrone3_PilotingState_AltitudeAboveGroundChanged
                0x00000000002788a0                g_arsdk_cmd_desc_Ardrone3_PilotingState_VibrationLevelChanged
                0x0000000000278900                g_arsdk_cmd_desc_Ardrone3_PilotingState_WindStateChanged
                0x0000000000278960                g_arsdk_cmd_desc_Ardrone3_PilotingState_ForcedLandingAutoTrigger
                0x00000000002789e0                g_arsdk_cmd_desc_Ardrone3_PilotingState_HoveringWarning
                0x0000000000278a60                g_arsdk_cmd_desc_Ardrone3_PilotingState_MoveByChanged
                0x0000000000278bc0                g_arsdk_cmd_desc_Ardrone3_PilotingState_ReturnHomeBatteryCapacity
                0x0000000000278c20                g_arsdk_cmd_desc_Ardrone3_PilotingState_PilotedPOIV2
                0x0000000000278d00                g_arsdk_cmd_desc_Ardrone3_PilotingState_PilotedPOI
                0x0000000000278dc0                g_arsdk_cmd_desc_Ardrone3_PilotingState_MotionState
                0x0000000000278e20                g_arsdk_cmd_desc_Ardrone3_PilotingState_MoveToChanged
                0x0000000000278f20                g_arsdk_cmd_desc_Ardrone3_PilotingState_AirSpeedChanged
                0x0000000000278f80                g_arsdk_cmd_desc_Ardrone3_PilotingState_LandingStateChanged
                0x0000000000278fe0                g_arsdk_cmd_desc_Ardrone3_PilotingState_GpsLocationChanged
                0x00000000002790e0                g_arsdk_cmd_desc_Ardrone3_PilotingState_AltitudeChanged
                0x0000000000279140                g_arsdk_cmd_desc_Ardrone3_PilotingState_AttitudeChanged
                0x00000000002791e0                g_arsdk_cmd_desc_Ardrone3_PilotingState_SpeedChanged
                0x0000000000279280                g_arsdk_cmd_desc_Ardrone3_PilotingState_PositionChanged
                0x0000000000279320                g_arsdk_cmd_desc_Ardrone3_PilotingState_NavigateHomeStateChanged
                0x00000000002793a0                g_arsdk_cmd_desc_Ardrone3_PilotingState_AlertStateChanged
                0x0000000000279400                g_arsdk_cmd_desc_Ardrone3_PilotingState_FlyingStateChanged
                0x0000000000279460                g_arsdk_cmd_desc_Ardrone3_MediaRecordEvent_VideoEventChanged
                0x00000000002794e0                g_arsdk_cmd_desc_Ardrone3_MediaRecordEvent_PictureEventChanged
                0x0000000000279560                g_arsdk_cmd_desc_Ardrone3_MediaRecordState_VideoResolutionState
                0x00000000002795e0                g_arsdk_cmd_desc_Ardrone3_MediaRecordState_VideoStateChangedV2
                0x0000000000279660                g_arsdk_cmd_desc_Ardrone3_MediaRecordState_PictureStateChangedV2
                0x00000000002796e0                g_arsdk_cmd_desc_Ardrone3_MediaRecordState_VideoStateChanged
                0x0000000000279760                g_arsdk_cmd_desc_Ardrone3_MediaRecordState_PictureStateChanged
                0x00000000002797e0                g_arsdk_cmd_desc_Ardrone3_Sound_StopAlertSound
                0x0000000000279820                g_arsdk_cmd_desc_Ardrone3_Sound_StartAlertSound
                0x0000000000279860                g_arsdk_cmd_desc_Ardrone3_Antiflickering_SetMode
                0x00000000002798c0                g_arsdk_cmd_desc_Ardrone3_Antiflickering_ElectricFrequency
                0x0000000000279920                g_arsdk_cmd_desc_Ardrone3_GPSSettings_ReturnHomeMinAltitude
                0x0000000000279980                g_arsdk_cmd_desc_Ardrone3_GPSSettings_ReturnHomeDelay
                0x00000000002799e0                g_arsdk_cmd_desc_Ardrone3_GPSSettings_HomeType
                0x0000000000279a40                g_arsdk_cmd_desc_Ardrone3_GPSSettings_SendControllerGPS
                0x0000000000279b20                g_arsdk_cmd_desc_Ardrone3_GPSSettings_ResetHome
                0x0000000000279b60                g_arsdk_cmd_desc_Ardrone3_GPSSettings_SetHome
                0x0000000000279c00                g_arsdk_cmd_desc_Ardrone3_MediaStreaming_VideoStreamMode
                0x0000000000279c60                g_arsdk_cmd_desc_Ardrone3_MediaStreaming_VideoEnable
                0x0000000000279cc0                g_arsdk_cmd_desc_Ardrone3_PictureSettings_VideoResolutions
                0x0000000000279d20                g_arsdk_cmd_desc_Ardrone3_PictureSettings_VideoFramerate
                0x0000000000279d80                g_arsdk_cmd_desc_Ardrone3_PictureSettings_VideoRecordingMode
                0x0000000000279de0                g_arsdk_cmd_desc_Ardrone3_PictureSettings_VideoStabilizationMode
                0x0000000000279e40                g_arsdk_cmd_desc_Ardrone3_PictureSettings_VideoAutorecordSelection
                0x0000000000279ec0                g_arsdk_cmd_desc_Ardrone3_PictureSettings_TimelapseSelection
                0x0000000000279f40                g_arsdk_cmd_desc_Ardrone3_PictureSettings_SaturationSelection
                0x0000000000279fa0                g_arsdk_cmd_desc_Ardrone3_PictureSettings_ExpositionSelection
                0x000000000027a000                g_arsdk_cmd_desc_Ardrone3_PictureSettings_AutoWhiteBalanceSelection
                0x000000000027a060                g_arsdk_cmd_desc_Ardrone3_PictureSettings_PictureFormatSelection
                0x000000000027a0c0                g_arsdk_cmd_desc_Ardrone3_NetworkSettings_WifiSecurity
                0x000000000027a160                g_arsdk_cmd_desc_Ardrone3_NetworkSettings_WifiSelection
                0x000000000027a200                g_arsdk_cmd_desc_Ardrone3_SpeedSettings_MaxPitchRollRotationSpeed
                0x000000000027a260                g_arsdk_cmd_desc_Ardrone3_SpeedSettings_Outdoor
                0x000000000027a2c0                g_arsdk_cmd_desc_Ardrone3_SpeedSettings_HullProtection
                0x000000000027a320                g_arsdk_cmd_desc_Ardrone3_SpeedSettings_MaxRotationSpeed
                0x000000000027a380                g_arsdk_cmd_desc_Ardrone3_SpeedSettings_MaxVerticalSpeed
                0x000000000027a3e0                g_arsdk_cmd_desc_Ardrone3_PilotingSettings_SetMotionDetectionMode
                0x000000000027a440                g_arsdk_cmd_desc_Ardrone3_PilotingSettings_PitchMode
                0x000000000027a4a0                g_arsdk_cmd_desc_Ardrone3_PilotingSettings_CirclingAltitude
                0x000000000027a500                g_arsdk_cmd_desc_Ardrone3_PilotingSettings_CirclingRadius
                0x000000000027a560                g_arsdk_cmd_desc_Ardrone3_PilotingSettings_CirclingDirection
                0x000000000027a5c0                g_arsdk_cmd_desc_Ardrone3_PilotingSettings_MinAltitude
                0x000000000027a620                g_arsdk_cmd_desc_Ardrone3_PilotingSettings_BankedTurn
                0x000000000027a680                g_arsdk_cmd_desc_Ardrone3_PilotingSettings_NoFlyOverMaxDistance
                0x000000000027a6e0                g_arsdk_cmd_desc_Ardrone3_PilotingSettings_MaxDistance
                0x000000000027a740                g_arsdk_cmd_desc_Ardrone3_PilotingSettings_AbsolutControl
                0x000000000027a7a0                g_arsdk_cmd_desc_Ardrone3_PilotingSettings_MaxTilt
                0x000000000027a800                g_arsdk_cmd_desc_Ardrone3_PilotingSettings_MaxAltitude
                0x000000000027a860                g_arsdk_cmd_desc_Ardrone3_Network_WifiAuthChannel
                0x000000000027a8a0                g_arsdk_cmd_desc_Ardrone3_Network_WifiScan
                0x000000000027a900                g_arsdk_cmd_desc_Ardrone3_MediaRecord_VideoV2
                0x000000000027a960                g_arsdk_cmd_desc_Ardrone3_MediaRecord_PictureV2
                0x000000000027a9a0                g_arsdk_cmd_desc_Ardrone3_MediaRecord_Video
                0x000000000027aa20                g_arsdk_cmd_desc_Ardrone3_MediaRecord_Picture
                0x000000000027aa80                g_arsdk_cmd_desc_Ardrone3_Camera_Velocity
                0x000000000027ab00                g_arsdk_cmd_desc_Ardrone3_Camera_OrientationV2
                0x000000000027ab80                g_arsdk_cmd_desc_Ardrone3_Camera_Orientation
                0x000000000027ac00                g_arsdk_cmd_desc_Ardrone3_Animations_Flip
                0x000000000027ac60                g_arsdk_cmd_desc_Ardrone3_Piloting_CancelMoveBy
                0x000000000027aca0                g_arsdk_cmd_desc_Ardrone3_Piloting_StopPilotedPOI
                0x000000000027ace0                g_arsdk_cmd_desc_Ardrone3_Piloting_StartPilotedPOIV2
                0x000000000027ada0                g_arsdk_cmd_desc_Ardrone3_Piloting_StartPilotedPOI
                0x000000000027ae40                g_arsdk_cmd_desc_Ardrone3_Piloting_CancelMoveTo
                0x000000000027ae80                g_arsdk_cmd_desc_Ardrone3_Piloting_MoveTo
                0x000000000027af60                g_arsdk_cmd_desc_Ardrone3_Piloting_Circle
                0x000000000027afc0                g_arsdk_cmd_desc_Ardrone3_Piloting_UserTakeOff
                0x000000000027b020                g_arsdk_cmd_desc_Ardrone3_Piloting_MoveBy
                0x000000000027b0e0                g_arsdk_cmd_desc_Ardrone3_Piloting_NavigateHome
                0x000000000027b140                g_arsdk_cmd_desc_Ardrone3_Piloting_Emergency
                0x000000000027b180                g_arsdk_cmd_desc_Ardrone3_Piloting_Landing
                0x000000000027b1c0                g_arsdk_cmd_desc_Ardrone3_Piloting_PCMD
                0x000000000027b2c0                g_arsdk_cmd_desc_Ardrone3_Piloting_TakeOff
                0x000000000027c680                g_arsdk_cmd_desc_Common_UpdateState_UpdateStateChanged
                0x000000000027c720                g_arsdk_cmd_desc_Common_RunState_RunIdChanged
                0x000000000027c780                g_arsdk_cmd_desc_Common_ChargerState_ChargingInfo
                0x000000000027c840                g_arsdk_cmd_desc_Common_ChargerState_LastChargeRateChanged
                0x000000000027c8a0                g_arsdk_cmd_desc_Common_ChargerState_CurrentChargeStateChanged
                0x000000000027c920                g_arsdk_cmd_desc_Common_ChargerState_MaxChargeRateChanged
                0x000000000027c980                g_arsdk_cmd_desc_Common_AccessoryState_AccessoryConfigModificationEnabled
                0x000000000027c9e0                g_arsdk_cmd_desc_Common_AccessoryState_AccessoryConfigChanged
                0x000000000027ca60                g_arsdk_cmd_desc_Common_AccessoryState_SupportedAccessoriesListChanged
                0x000000000027cac0                g_arsdk_cmd_desc_Common_AnimationsState_List
                0x000000000027cb60                g_arsdk_cmd_desc_Common_HeadlightsState_IntensityChanged
                0x000000000027cbe0                g_arsdk_cmd_desc_Common_AudioState_AudioStreamingRunning
                0x000000000027cc40                g_arsdk_cmd_desc_Common_ARLibsVersionsState_DeviceLibARCommandsVersion
                0x000000000027cca0                g_arsdk_cmd_desc_Common_ARLibsVersionsState_SkyControllerLibARCommandsVersion
                0x000000000027cd00                g_arsdk_cmd_desc_Common_ARLibsVersionsState_ControllerLibARCommandsVersion
                0x000000000027cd60                g_arsdk_cmd_desc_Common_FlightPlanEvent_SpeedBridleEvent
                0x000000000027cda0                g_arsdk_cmd_desc_Common_FlightPlanEvent_StartingErrorEvent
                0x000000000027cde0                g_arsdk_cmd_desc_Common_FlightPlanState_LockStateChanged
                0x000000000027ce40                g_arsdk_cmd_desc_Common_FlightPlanState_ComponentStateListChanged
                0x000000000027cec0                g_arsdk_cmd_desc_Common_FlightPlanState_AvailabilityStateChanged
                0x000000000027cf20                g_arsdk_cmd_desc_Common_CameraSettingsState_CameraSettingsChanged
                0x000000000027d000                g_arsdk_cmd_desc_Common_CalibrationState_PitotCalibrationStateChanged
                0x000000000027d080                g_arsdk_cmd_desc_Common_CalibrationState_MagnetoCalibrationStartedChanged
                0x000000000027d0e0                g_arsdk_cmd_desc_Common_CalibrationState_MagnetoCalibrationAxisToCalibrateChanged
                0x000000000027d140                g_arsdk_cmd_desc_Common_CalibrationState_MagnetoCalibrationRequiredState
                0x000000000027d1a0                g_arsdk_cmd_desc_Common_CalibrationState_MagnetoCalibrationStateChanged
                0x000000000027d260                g_arsdk_cmd_desc_Common_FlightPlanSettingsState_ReturnHomeOnDisconnectChanged
                0x000000000027d2e0                g_arsdk_cmd_desc_Common_MavlinkState_MissionItemExecuted
                0x000000000027d340                g_arsdk_cmd_desc_Common_MavlinkState_MavlinkPlayErrorStateChanged
                0x000000000027d3a0                g_arsdk_cmd_desc_Common_MavlinkState_MavlinkFilePlayingStateChanged
                0x000000000027d440                g_arsdk_cmd_desc_Common_WifiSettingsState_OutdoorSettingsChanged
                0x000000000027d4a0                g_arsdk_cmd_desc_Common_OverHeatState_OverHeatRegulationChanged
                0x000000000027d500                g_arsdk_cmd_desc_Common_OverHeatState_OverHeatChanged
                0x000000000027d540                g_arsdk_cmd_desc_Common_CommonState_BootId
                0x000000000027d5a0                g_arsdk_cmd_desc_Common_CommonState_LinkSignalQuality
                0x000000000027d600                g_arsdk_cmd_desc_Common_CommonState_CurrentDateTimeChanged
                0x000000000027d660                g_arsdk_cmd_desc_Common_CommonState_VideoRecordingTimestamp
                0x000000000027d6e0                g_arsdk_cmd_desc_Common_CommonState_MassStorageContentForCurrentRun
                0x000000000027d7a0                g_arsdk_cmd_desc_Common_CommonState_MassStorageContent
                0x000000000027d8a0                g_arsdk_cmd_desc_Common_CommonState_DeprecatedMassStorageContentChanged
                0x000000000027d980                g_arsdk_cmd_desc_Common_CommonState_CountryListKnown
                0x000000000027da00                g_arsdk_cmd_desc_Common_CommonState_ProductModel
                0x000000000027da60                g_arsdk_cmd_desc_Common_CommonState_SensorsStatesListChanged
                0x000000000027dae0                g_arsdk_cmd_desc_Common_CommonState_WifiSignalChanged
                0x000000000027db40                g_arsdk_cmd_desc_Common_CommonState_MassStorageInfoRemainingListChanged
                0x000000000027dbe0                g_arsdk_cmd_desc_Common_CommonState_CurrentTimeChanged
                0x000000000027dc40                g_arsdk_cmd_desc_Common_CommonState_CurrentDateChanged
                0x000000000027dca0                g_arsdk_cmd_desc_Common_CommonState_MassStorageInfoStateListChanged
                0x000000000027dda0                g_arsdk_cmd_desc_Common_CommonState_MassStorageStateListChanged
                0x000000000027de20                g_arsdk_cmd_desc_Common_CommonState_BatteryStateChanged
                0x000000000027de80                g_arsdk_cmd_desc_Common_CommonState_AllStatesChanged
                0x000000000027dec0                g_arsdk_cmd_desc_Common_SettingsState_BoardIdChanged
                0x000000000027df20                g_arsdk_cmd_desc_Common_SettingsState_AutoCountryChanged
                0x000000000027df80                g_arsdk_cmd_desc_Common_SettingsState_CountryChanged
                0x000000000027dfe0                g_arsdk_cmd_desc_Common_SettingsState_ProductSerialLowChanged
                0x000000000027e040                g_arsdk_cmd_desc_Common_SettingsState_ProductSerialHighChanged
                0x000000000027e0a0                g_arsdk_cmd_desc_Common_SettingsState_ProductVersionChanged
                0x000000000027e120                g_arsdk_cmd_desc_Common_SettingsState_ProductNameChanged
                0x000000000027e180                g_arsdk_cmd_desc_Common_SettingsState_ResetChanged
                0x000000000027e1c0                g_arsdk_cmd_desc_Common_SettingsState_AllSettingsChanged
                0x000000000027e200                g_arsdk_cmd_desc_Common_NetworkEvent_Disconnection
                0x000000000027e260                g_arsdk_cmd_desc_Common_Factory_Reset
                0x000000000027e2a0                g_arsdk_cmd_desc_Common_Charger_SetMaxChargeRate
                0x000000000027e300                g_arsdk_cmd_desc_Common_Accessory_Config
                0x000000000027e360                g_arsdk_cmd_desc_Common_Animations_StopAllAnimations
                0x000000000027e3a0                g_arsdk_cmd_desc_Common_Animations_StopAnimation
                0x000000000027e400                g_arsdk_cmd_desc_Common_Animations_StartAnimation
                0x000000000027e460                g_arsdk_cmd_desc_Common_Headlights_Intensity
                0x000000000027e4e0                g_arsdk_cmd_desc_Common_Audio_ControllerReadyForStreaming
                0x000000000027e540                g_arsdk_cmd_desc_Common_GPS_ControllerPositionForRun
                0x000000000027e5c0                g_arsdk_cmd_desc_Common_Calibration_PitotCalibration
                0x000000000027e620                g_arsdk_cmd_desc_Common_Calibration_MagnetoCalibration
                0x000000000027e680                g_arsdk_cmd_desc_Common_FlightPlanSettings_ReturnHomeOnDisconnect
                0x000000000027e6e0                g_arsdk_cmd_desc_Common_Mavlink_Stop
                0x000000000027e720                g_arsdk_cmd_desc_Common_Mavlink_Pause
                0x000000000027e760                g_arsdk_cmd_desc_Common_Mavlink_Start
                0x000000000027e7e0                g_arsdk_cmd_desc_Common_WifiSettings_OutdoorSetting
                0x000000000027e840                g_arsdk_cmd_desc_Common_Controller_PeerStateChanged
                0x000000000027e920                g_arsdk_cmd_desc_Common_Controller_IsPiloting
                0x000000000027e980                g_arsdk_cmd_desc_Common_OverHeat_Ventilate
                0x000000000027e9c0                g_arsdk_cmd_desc_Common_OverHeat_SwitchOff
                0x000000000027ea00                g_arsdk_cmd_desc_Common_Common_CurrentDateTime
                0x000000000027ea60                g_arsdk_cmd_desc_Common_Common_Reboot
                0x000000000027eaa0                g_arsdk_cmd_desc_Common_Common_CurrentTime
                0x000000000027eb00                g_arsdk_cmd_desc_Common_Common_CurrentDate
                0x000000000027eb60                g_arsdk_cmd_desc_Common_Common_AllStates
                0x000000000027eba0                g_arsdk_cmd_desc_Common_Settings_AutoCountry
                0x000000000027ec00                g_arsdk_cmd_desc_Common_Settings_Country
                0x000000000027ec60                g_arsdk_cmd_desc_Common_Settings_ProductName
                0x000000000027ecc0                g_arsdk_cmd_desc_Common_Settings_Reset
                0x000000000027ed00                g_arsdk_cmd_desc_Common_Settings_AllSettings
                0x000000000027ed40                g_arsdk_cmd_desc_Common_Network_Disconnect
 *(.data.rel.ro .data.rel.ro.* .gnu.linkonce.d.rel.ro.*)
 .data.rel.ro   0x000000000027f8b0        0x0 /usr/lib/gcc/x86_64-linux-gnu/7/../../../x86_64-linux-gnu/crti.o
 *fill*         0x000000000027f8b0       0x10 
 .data.rel.ro   0x000000000027f8c0     0x24d0 /home/zxli/code/parrot-groundsdk/out/olympe-linux/staging/usr/lib/libarsdkgen.a(arsdk_cmd_desc.c.o)

.dynamic        0x0000000000281d90      0x230
 *(.dynamic)
 .dynamic       0x0000000000281d90      0x230 /usr/lib/gcc/x86_64-linux-gnu/7/../../../x86_64-linux-gnu/crti.o
                0x0000000000281d90                _DYNAMIC

.got            0x0000000000281fc0       0x28
 *(.got)
 .got           0x0000000000281fc0       0x28 /usr/lib/gcc/x86_64-linux-gnu/7/../../../x86_64-linux-gnu/crti.o
 *(.igot)
                0x0000000000281fe8                . = DATA_SEGMENT_RELRO_END (., (SIZEOF (.got.plt) >= 0x18)?0x18:0x0)

.got.plt        0x0000000000282000      0x460
 *(.got.plt)
 .got.plt       0x0000000000282000      0x460 /usr/lib/gcc/x86_64-linux-gnu/7/../../../x86_64-linux-gnu/crti.o
                0x0000000000282000                _GLOBAL_OFFSET_TABLE_
 *(.igot.plt)

.data           0x0000000000282460      0x880
 *(.data .data.* .gnu.linkonce.d.*)
 .data.rel.local
                0x0000000000282460        0x8 /usr/lib/gcc/x86_64-linux-gnu/7/crtbeginS.o
                0x0000000000282460                __dso_handle
 *fill*         0x0000000000282468       0x18 
 .data.rel.local
                0x0000000000282480       0x20 /home/zxli/code/parrot-groundsdk/out/olympe-linux/build/libarsdk/obj/libarsdk/src/arsdk_log.c.o
                0x0000000000282480                __ulog_cookie_arsdk
 .data.rel.local
                0x00000000002824a0       0x20 /home/zxli/code/parrot-groundsdk/out/olympe-linux/build/libarsdk/obj/libarsdk/src/net/arsdk_backend_net.c.o
                0x00000000002824a0                __ulog_cookie_arsdk_net
 .data.rel.local
                0x00000000002824c0       0x20 /home/zxli/code/parrot-groundsdk/out/olympe-linux/build/libarsdk/obj/libarsdk/src/mux/arsdk_backend_mux.c.o
                0x00000000002824c0                __ulog_cookie_arsdk_mux
 .data.rel.local
                0x00000000002824e0      0x800 /home/zxli/code/parrot-groundsdk/out/olympe-linux/staging/usr/lib/libarsdkgen.a(arsdk_cmd_desc.c.o)
                0x00000000002824e0                g_arsdk_cmd_desc_table

.tm_clone_table
                0x0000000000282ce0        0x0
 .tm_clone_table
                0x0000000000282ce0        0x0 /usr/lib/gcc/x86_64-linux-gnu/7/crtbeginS.o
 .tm_clone_table
                0x0000000000282ce0        0x0 /usr/lib/gcc/x86_64-linux-gnu/7/crtendS.o

.data1
 *(.data1)
                0x0000000000282ce0                _edata = .
                [!provide]                        PROVIDE (edata = .)
                0x0000000000282ce0                . = .
                0x0000000000282ce0                __bss_start = .

.bss            0x0000000000282ce0        0x8
 *(.dynbss)
 .dynbss        0x0000000000282ce0        0x0 /usr/lib/gcc/x86_64-linux-gnu/7/../../../x86_64-linux-gnu/crti.o
 *(.bss .bss.* .gnu.linkonce.b.*)
 .bss           0x0000000000282ce0        0x1 /usr/lib/gcc/x86_64-linux-gnu/7/crtbeginS.o
 *(COMMON)
                0x0000000000282ce8                . = ALIGN ((. != 0x0)?0x8:0x1)
 *fill*         0x0000000000282ce1        0x7 

.lbss
 *(.dynlbss)
 *(.lbss .lbss.* .gnu.linkonce.lb.*)
 *(LARGE_COMMON)
                0x0000000000282ce8                . = ALIGN (0x8)
                0x0000000000282ce8                . = SEGMENT_START ("ldata-segment", .)

.lrodata
 *(.lrodata .lrodata.* .gnu.linkonce.lr.*)

.ldata          0x0000000000682ce8        0x0
 *(.ldata .ldata.* .gnu.linkonce.l.*)
                0x0000000000682ce8                . = ALIGN ((. != 0x0)?0x8:0x1)
                0x0000000000682ce8                . = ALIGN (0x8)
                0x0000000000682ce8                _end = .
                [!provide]                        PROVIDE (end = .)
                0x0000000000682ce8                . = DATA_SEGMENT_END (.)

.stab
 *(.stab)

.stabstr
 *(.stabstr)

.stab.excl
 *(.stab.excl)

.stab.exclstr
 *(.stab.exclstr)

.stab.index
 *(.stab.index)

.stab.indexstr
 *(.stab.indexstr)

.comment        0x0000000000000000       0x29
 *(.comment)
 .comment       0x0000000000000000       0x29 /usr/lib/gcc/x86_64-linux-gnu/7/crtbeginS.o
                                         0x2a (size before relaxing)
 .comment       0x0000000000000029       0x2a /home/zxli/code/parrot-groundsdk/out/olympe-linux/build/libarsdk/obj/libarsdk/src/arsdk_backend.c.o
 .comment       0x0000000000000029       0x2a /home/zxli/code/parrot-groundsdk/out/olympe-linux/build/libarsdk/obj/libarsdk/src/cmd_itf/arsdk_cmd_itf.c.o
 .comment       0x0000000000000029       0x2a /home/zxli/code/parrot-groundsdk/out/olympe-linux/build/libarsdk/obj/libarsdk/src/cmd_itf/arsdk_cmd_itf1.c.o
 .comment       0x0000000000000029       0x2a /home/zxli/code/parrot-groundsdk/out/olympe-linux/build/libarsdk/obj/libarsdk/src/cmd_itf/arsdk_cmd_itf2.c.o
 .comment       0x0000000000000029       0x2a /home/zxli/code/parrot-groundsdk/out/olympe-linux/build/libarsdk/obj/libarsdk/src/cmd_itf/arsdk_cmd_itf3.c.o
 .comment       0x0000000000000029       0x2a /home/zxli/code/parrot-groundsdk/out/olympe-linux/build/libarsdk/obj/libarsdk/src/arsdk_decoder.c.o
 .comment       0x0000000000000029       0x2a /home/zxli/code/parrot-groundsdk/out/olympe-linux/build/libarsdk/obj/libarsdk/src/arsdk_mngr.c.o
 .comment       0x0000000000000029       0x2a /home/zxli/code/parrot-groundsdk/out/olympe-linux/build/libarsdk/obj/libarsdk/src/arsdk_encoder.c.o
 .comment       0x0000000000000029       0x2a /home/zxli/code/parrot-groundsdk/out/olympe-linux/build/libarsdk/obj/libarsdk/src/arsdk_log.c.o
 .comment       0x0000000000000029       0x2a /home/zxli/code/parrot-groundsdk/out/olympe-linux/build/libarsdk/obj/libarsdk/src/arsdk_peer.c.o
 .comment       0x0000000000000029       0x2a /home/zxli/code/parrot-groundsdk/out/olympe-linux/build/libarsdk/obj/libarsdk/src/arsdk_transport.c.o
 .comment       0x0000000000000029       0x2a /home/zxli/code/parrot-groundsdk/out/olympe-linux/build/libarsdk/obj/libarsdk/src/net/arsdk_backend_net.c.o
 .comment       0x0000000000000029       0x2a /home/zxli/code/parrot-groundsdk/out/olympe-linux/build/libarsdk/obj/libarsdk/src/net/arsdk_publisher_avahi.c.o
 .comment       0x0000000000000029       0x2a /home/zxli/code/parrot-groundsdk/out/olympe-linux/build/libarsdk/obj/libarsdk/src/net/arsdk_publisher_net.c.o
 .comment       0x0000000000000029       0x2a /home/zxli/code/parrot-groundsdk/out/olympe-linux/build/libarsdk/obj/libarsdk/src/net/arsdk_transport_net.c.o
 .comment       0x0000000000000029       0x2a /home/zxli/code/parrot-groundsdk/out/olympe-linux/build/libarsdk/obj/libarsdk/src/mux/arsdk_backend_mux.c.o
 .comment       0x0000000000000029       0x2a /home/zxli/code/parrot-groundsdk/out/olympe-linux/build/libarsdk/obj/libarsdk/src/mux/arsdk_publisher_mux.c.o
 .comment       0x0000000000000029       0x2a /home/zxli/code/parrot-groundsdk/out/olympe-linux/build/libarsdk/obj/libarsdk/src/mux/arsdk_transport_mux.c.o
 .comment       0x0000000000000029       0x2a /home/zxli/code/parrot-groundsdk/out/olympe-linux/staging/usr/lib/libarsdkgen.a(arsdk_cmd_desc.c.o)
 .comment       0x0000000000000029       0x2a /usr/lib/gcc/x86_64-linux-gnu/7/crtendS.o

.debug
 *(.debug)

.line
 *(.line)

.debug_srcinfo
 *(.debug_srcinfo)

.debug_sfnames
 *(.debug_sfnames)

.debug_aranges  0x0000000000000000      0xe70
 *(.debug_aranges)
 .debug_aranges
                0x0000000000000000      0x140 /home/zxli/code/parrot-groundsdk/out/olympe-linux/build/libarsdk/obj/libarsdk/src/arsdk_backend.c.o
 .debug_aranges
                0x0000000000000140       0xe0 /home/zxli/code/parrot-groundsdk/out/olympe-linux/build/libarsdk/obj/libarsdk/src/cmd_itf/arsdk_cmd_itf.c.o
 .debug_aranges
                0x0000000000000220       0xe0 /home/zxli/code/parrot-groundsdk/out/olympe-linux/build/libarsdk/obj/libarsdk/src/cmd_itf/arsdk_cmd_itf1.c.o
 .debug_aranges
                0x0000000000000300       0xd0 /home/zxli/code/parrot-groundsdk/out/olympe-linux/build/libarsdk/obj/libarsdk/src/cmd_itf/arsdk_cmd_itf2.c.o
 .debug_aranges
                0x00000000000003d0       0xd0 /home/zxli/code/parrot-groundsdk/out/olympe-linux/build/libarsdk/obj/libarsdk/src/cmd_itf/arsdk_cmd_itf3.c.o
 .debug_aranges
                0x00000000000004a0       0xc0 /home/zxli/code/parrot-groundsdk/out/olympe-linux/build/libarsdk/obj/libarsdk/src/arsdk_decoder.c.o
 .debug_aranges
                0x0000000000000560       0xc0 /home/zxli/code/parrot-groundsdk/out/olympe-linux/build/libarsdk/obj/libarsdk/src/arsdk_mngr.c.o
 .debug_aranges
                0x0000000000000620       0x70 /home/zxli/code/parrot-groundsdk/out/olympe-linux/build/libarsdk/obj/libarsdk/src/arsdk_encoder.c.o
 .debug_aranges
                0x0000000000000690       0x20 /home/zxli/code/parrot-groundsdk/out/olympe-linux/build/libarsdk/obj/libarsdk/src/arsdk_log.c.o
 .debug_aranges
                0x00000000000006b0      0x170 /home/zxli/code/parrot-groundsdk/out/olympe-linux/build/libarsdk/obj/libarsdk/src/arsdk_peer.c.o
 .debug_aranges
                0x0000000000000820      0x110 /home/zxli/code/parrot-groundsdk/out/olympe-linux/build/libarsdk/obj/libarsdk/src/arsdk_transport.c.o
 .debug_aranges
                0x0000000000000930      0x120 /home/zxli/code/parrot-groundsdk/out/olympe-linux/build/libarsdk/obj/libarsdk/src/net/arsdk_backend_net.c.o
 .debug_aranges
                0x0000000000000a50       0x60 /home/zxli/code/parrot-groundsdk/out/olympe-linux/build/libarsdk/obj/libarsdk/src/net/arsdk_publisher_avahi.c.o
 .debug_aranges
                0x0000000000000ab0       0xa0 /home/zxli/code/parrot-groundsdk/out/olympe-linux/build/libarsdk/obj/libarsdk/src/net/arsdk_publisher_net.c.o
 .debug_aranges
                0x0000000000000b50       0xd0 /home/zxli/code/parrot-groundsdk/out/olympe-linux/build/libarsdk/obj/libarsdk/src/net/arsdk_transport_net.c.o
 .debug_aranges
                0x0000000000000c20       0xe0 /home/zxli/code/parrot-groundsdk/out/olympe-linux/build/libarsdk/obj/libarsdk/src/mux/arsdk_backend_mux.c.o
 .debug_aranges
                0x0000000000000d00       0x80 /home/zxli/code/parrot-groundsdk/out/olympe-linux/build/libarsdk/obj/libarsdk/src/mux/arsdk_publisher_mux.c.o
 .debug_aranges
                0x0000000000000d80       0xc0 /home/zxli/code/parrot-groundsdk/out/olympe-linux/build/libarsdk/obj/libarsdk/src/mux/arsdk_transport_mux.c.o
 .debug_aranges
                0x0000000000000e40       0x30 /home/zxli/code/parrot-groundsdk/out/olympe-linux/staging/usr/lib/libarsdkgen.a(arsdk_cmd_desc.c.o)

.debug_pubnames
 *(.debug_pubnames)

.debug_info     0x0000000000000000    0x6af8c
 *(.debug_info .gnu.linkonce.wi.*)
 .debug_info    0x0000000000000000     0x4254 /home/zxli/code/parrot-groundsdk/out/olympe-linux/build/libarsdk/obj/libarsdk/src/arsdk_backend.c.o
 .debug_info    0x0000000000004254     0x4134 /home/zxli/code/parrot-groundsdk/out/olympe-linux/build/libarsdk/obj/libarsdk/src/cmd_itf/arsdk_cmd_itf.c.o
 .debug_info    0x0000000000008388     0x5c02 /home/zxli/code/parrot-groundsdk/out/olympe-linux/build/libarsdk/obj/libarsdk/src/cmd_itf/arsdk_cmd_itf1.c.o
 .debug_info    0x000000000000df8a     0x5f20 /home/zxli/code/parrot-groundsdk/out/olympe-linux/build/libarsdk/obj/libarsdk/src/cmd_itf/arsdk_cmd_itf2.c.o
 .debug_info    0x0000000000013eaa     0x6123 /home/zxli/code/parrot-groundsdk/out/olympe-linux/build/libarsdk/obj/libarsdk/src/cmd_itf/arsdk_cmd_itf3.c.o
 .debug_info    0x0000000000019fcd     0x5214 /home/zxli/code/parrot-groundsdk/out/olympe-linux/build/libarsdk/obj/libarsdk/src/arsdk_decoder.c.o
 .debug_info    0x000000000001f1e1     0x49f0 /home/zxli/code/parrot-groundsdk/out/olympe-linux/build/libarsdk/obj/libarsdk/src/arsdk_mngr.c.o
 .debug_info    0x0000000000023bd1     0x3da1 /home/zxli/code/parrot-groundsdk/out/olympe-linux/build/libarsdk/obj/libarsdk/src/arsdk_encoder.c.o
 .debug_info    0x0000000000027972     0x2c83 /home/zxli/code/parrot-groundsdk/out/olympe-linux/build/libarsdk/obj/libarsdk/src/arsdk_log.c.o
 .debug_info    0x000000000002a5f5     0x4dfc /home/zxli/code/parrot-groundsdk/out/olympe-linux/build/libarsdk/obj/libarsdk/src/arsdk_peer.c.o
 .debug_info    0x000000000002f3f1     0x4b35 /home/zxli/code/parrot-groundsdk/out/olympe-linux/build/libarsdk/obj/libarsdk/src/arsdk_transport.c.o
 .debug_info    0x0000000000033f26     0x6f54 /home/zxli/code/parrot-groundsdk/out/olympe-linux/build/libarsdk/obj/libarsdk/src/net/arsdk_backend_net.c.o
 .debug_info    0x000000000003ae7a     0x39db /home/zxli/code/parrot-groundsdk/out/olympe-linux/build/libarsdk/obj/libarsdk/src/net/arsdk_publisher_avahi.c.o
 .debug_info    0x000000000003e855     0x4a60 /home/zxli/code/parrot-groundsdk/out/olympe-linux/build/libarsdk/obj/libarsdk/src/net/arsdk_publisher_net.c.o
 .debug_info    0x00000000000432b5     0x6419 /home/zxli/code/parrot-groundsdk/out/olympe-linux/build/libarsdk/obj/libarsdk/src/net/arsdk_transport_net.c.o
 .debug_info    0x00000000000496ce     0x5ee9 /home/zxli/code/parrot-groundsdk/out/olympe-linux/build/libarsdk/obj/libarsdk/src/mux/arsdk_backend_mux.c.o
 .debug_info    0x000000000004f5b7     0x3dbe /home/zxli/code/parrot-groundsdk/out/olympe-linux/build/libarsdk/obj/libarsdk/src/mux/arsdk_publisher_mux.c.o
 .debug_info    0x0000000000053375     0x4b54 /home/zxli/code/parrot-groundsdk/out/olympe-linux/build/libarsdk/obj/libarsdk/src/mux/arsdk_transport_mux.c.o
 .debug_info    0x0000000000057ec9    0x130c3 /home/zxli/code/parrot-groundsdk/out/olympe-linux/staging/usr/lib/libarsdkgen.a(arsdk_cmd_desc.c.o)

.debug_abbrev   0x0000000000000000     0x48e4
 *(.debug_abbrev)
 .debug_abbrev  0x0000000000000000      0x2b4 /home/zxli/code/parrot-groundsdk/out/olympe-linux/build/libarsdk/obj/libarsdk/src/arsdk_backend.c.o
 .debug_abbrev  0x00000000000002b4      0x34e /home/zxli/code/parrot-groundsdk/out/olympe-linux/build/libarsdk/obj/libarsdk/src/cmd_itf/arsdk_cmd_itf.c.o
 .debug_abbrev  0x0000000000000602      0x541 /home/zxli/code/parrot-groundsdk/out/olympe-linux/build/libarsdk/obj/libarsdk/src/cmd_itf/arsdk_cmd_itf1.c.o
 .debug_abbrev  0x0000000000000b43      0x515 /home/zxli/code/parrot-groundsdk/out/olympe-linux/build/libarsdk/obj/libarsdk/src/cmd_itf/arsdk_cmd_itf2.c.o
 .debug_abbrev  0x0000000000001058      0x4f5 /home/zxli/code/parrot-groundsdk/out/olympe-linux/build/libarsdk/obj/libarsdk/src/cmd_itf/arsdk_cmd_itf3.c.o
 .debug_abbrev  0x000000000000154d      0x455 /home/zxli/code/parrot-groundsdk/out/olympe-linux/build/libarsdk/obj/libarsdk/src/arsdk_decoder.c.o
 .debug_abbrev  0x00000000000019a2      0x3ce /home/zxli/code/parrot-groundsdk/out/olympe-linux/build/libarsdk/obj/libarsdk/src/arsdk_mngr.c.o
 .debug_abbrev  0x0000000000001d70      0x3d2 /home/zxli/code/parrot-groundsdk/out/olympe-linux/build/libarsdk/obj/libarsdk/src/arsdk_encoder.c.o
 .debug_abbrev  0x0000000000002142      0x103 /home/zxli/code/parrot-groundsdk/out/olympe-linux/build/libarsdk/obj/libarsdk/src/arsdk_log.c.o
 .debug_abbrev  0x0000000000002245      0x45e /home/zxli/code/parrot-groundsdk/out/olympe-linux/build/libarsdk/obj/libarsdk/src/arsdk_peer.c.o
 .debug_abbrev  0x00000000000026a3      0x452 /home/zxli/code/parrot-groundsdk/out/olympe-linux/build/libarsdk/obj/libarsdk/src/arsdk_transport.c.o
 .debug_abbrev  0x0000000000002af5      0x4fc /home/zxli/code/parrot-groundsdk/out/olympe-linux/build/libarsdk/obj/libarsdk/src/net/arsdk_backend_net.c.o
 .debug_abbrev  0x0000000000002ff1      0x2c3 /home/zxli/code/parrot-groundsdk/out/olympe-linux/build/libarsdk/obj/libarsdk/src/net/arsdk_publisher_avahi.c.o
 .debug_abbrev  0x00000000000032b4      0x409 /home/zxli/code/parrot-groundsdk/out/olympe-linux/build/libarsdk/obj/libarsdk/src/net/arsdk_publisher_net.c.o
 .debug_abbrev  0x00000000000036bd      0x4cd /home/zxli/code/parrot-groundsdk/out/olympe-linux/build/libarsdk/obj/libarsdk/src/net/arsdk_transport_net.c.o
 .debug_abbrev  0x0000000000003b8a      0x4a8 /home/zxli/code/parrot-groundsdk/out/olympe-linux/build/libarsdk/obj/libarsdk/src/mux/arsdk_backend_mux.c.o
 .debug_abbrev  0x0000000000004032      0x386 /home/zxli/code/parrot-groundsdk/out/olympe-linux/build/libarsdk/obj/libarsdk/src/mux/arsdk_publisher_mux.c.o
 .debug_abbrev  0x00000000000043b8      0x40b /home/zxli/code/parrot-groundsdk/out/olympe-linux/build/libarsdk/obj/libarsdk/src/mux/arsdk_transport_mux.c.o
 .debug_abbrev  0x00000000000047c3      0x121 /home/zxli/code/parrot-groundsdk/out/olympe-linux/staging/usr/lib/libarsdkgen.a(arsdk_cmd_desc.c.o)

.debug_line     0x0000000000000000     0xa085
 *(.debug_line .debug_line.* .debug_line_end)
 .debug_line    0x0000000000000000      0x6de /home/zxli/code/parrot-groundsdk/out/olympe-linux/build/libarsdk/obj/libarsdk/src/arsdk_backend.c.o
 .debug_line    0x00000000000006de      0x64f /home/zxli/code/parrot-groundsdk/out/olympe-linux/build/libarsdk/obj/libarsdk/src/cmd_itf/arsdk_cmd_itf.c.o
 .debug_line    0x0000000000000d2d      0xbbf /home/zxli/code/parrot-groundsdk/out/olympe-linux/build/libarsdk/obj/libarsdk/src/cmd_itf/arsdk_cmd_itf1.c.o
 .debug_line    0x00000000000018ec      0xc6b /home/zxli/code/parrot-groundsdk/out/olympe-linux/build/libarsdk/obj/libarsdk/src/cmd_itf/arsdk_cmd_itf2.c.o
 .debug_line    0x0000000000002557      0xd2f /home/zxli/code/parrot-groundsdk/out/olympe-linux/build/libarsdk/obj/libarsdk/src/cmd_itf/arsdk_cmd_itf3.c.o
 .debug_line    0x0000000000003286      0xb2b /home/zxli/code/parrot-groundsdk/out/olympe-linux/build/libarsdk/obj/libarsdk/src/arsdk_decoder.c.o
 .debug_line    0x0000000000003db1      0x7c1 /home/zxli/code/parrot-groundsdk/out/olympe-linux/build/libarsdk/obj/libarsdk/src/arsdk_mngr.c.o
 .debug_line    0x0000000000004572      0x56f /home/zxli/code/parrot-groundsdk/out/olympe-linux/build/libarsdk/obj/libarsdk/src/arsdk_encoder.c.o
 .debug_line    0x0000000000004ae1      0x213 /home/zxli/code/parrot-groundsdk/out/olympe-linux/build/libarsdk/obj/libarsdk/src/arsdk_log.c.o
 .debug_line    0x0000000000004cf4      0x949 /home/zxli/code/parrot-groundsdk/out/olympe-linux/build/libarsdk/obj/libarsdk/src/arsdk_peer.c.o
 .debug_line    0x000000000000563d      0x8ab /home/zxli/code/parrot-groundsdk/out/olympe-linux/build/libarsdk/obj/libarsdk/src/arsdk_transport.c.o
 .debug_line    0x0000000000005ee8      0xe94 /home/zxli/code/parrot-groundsdk/out/olympe-linux/build/libarsdk/obj/libarsdk/src/net/arsdk_backend_net.c.o
 .debug_line    0x0000000000006d7c      0x466 /home/zxli/code/parrot-groundsdk/out/olympe-linux/build/libarsdk/obj/libarsdk/src/net/arsdk_publisher_avahi.c.o
 .debug_line    0x00000000000071e2      0x7b0 /home/zxli/code/parrot-groundsdk/out/olympe-linux/build/libarsdk/obj/libarsdk/src/net/arsdk_publisher_net.c.o
 .debug_line    0x0000000000007992      0xbbb /home/zxli/code/parrot-groundsdk/out/olympe-linux/build/libarsdk/obj/libarsdk/src/net/arsdk_transport_net.c.o
 .debug_line    0x000000000000854d      0xbd8 /home/zxli/code/parrot-groundsdk/out/olympe-linux/build/libarsdk/obj/libarsdk/src/mux/arsdk_backend_mux.c.o
 .debug_line    0x0000000000009125      0x5bb /home/zxli/code/parrot-groundsdk/out/olympe-linux/build/libarsdk/obj/libarsdk/src/mux/arsdk_publisher_mux.c.o
 .debug_line    0x00000000000096e0      0x872 /home/zxli/code/parrot-groundsdk/out/olympe-linux/build/libarsdk/obj/libarsdk/src/mux/arsdk_transport_mux.c.o
 .debug_line    0x0000000000009f52      0x133 /home/zxli/code/parrot-groundsdk/out/olympe-linux/staging/usr/lib/libarsdkgen.a(arsdk_cmd_desc.c.o)

.debug_frame
 *(.debug_frame)

.debug_str      0x0000000000000000    0x3aab6
 *(.debug_str)
 .debug_str     0x0000000000000000     0xb5ec /home/zxli/code/parrot-groundsdk/out/olympe-linux/build/libarsdk/obj/libarsdk/src/arsdk_backend.c.o
                                       0xb7e7 (size before relaxing)
 .debug_str     0x000000000000b5ec      0x447 /home/zxli/code/parrot-groundsdk/out/olympe-linux/build/libarsdk/obj/libarsdk/src/cmd_itf/arsdk_cmd_itf.c.o
                                       0xb3b9 (size before relaxing)
 .debug_str     0x000000000000ba33      0x4e5 /home/zxli/code/parrot-groundsdk/out/olympe-linux/build/libarsdk/obj/libarsdk/src/cmd_itf/arsdk_cmd_itf1.c.o
                                       0xb6d5 (size before relaxing)
 .debug_str     0x000000000000bf18      0x142 /home/zxli/code/parrot-groundsdk/out/olympe-linux/build/libarsdk/obj/libarsdk/src/cmd_itf/arsdk_cmd_itf2.c.o
                                       0xb790 (size before relaxing)
 .debug_str     0x000000000000c05a       0xd2 /home/zxli/code/parrot-groundsdk/out/olympe-linux/build/libarsdk/obj/libarsdk/src/cmd_itf/arsdk_cmd_itf3.c.o
                                       0xb7f8 (size before relaxing)
 .debug_str     0x000000000000c12c      0x2e7 /home/zxli/code/parrot-groundsdk/out/olympe-linux/build/libarsdk/obj/libarsdk/src/arsdk_decoder.c.o
                                       0xb14b (size before relaxing)
 .debug_str     0x000000000000c413      0x214 /home/zxli/code/parrot-groundsdk/out/olympe-linux/build/libarsdk/obj/libarsdk/src/arsdk_mngr.c.o
                                       0xb526 (size before relaxing)
 .debug_str     0x000000000000c627      0x1d6 /home/zxli/code/parrot-groundsdk/out/olympe-linux/build/libarsdk/obj/libarsdk/src/arsdk_encoder.c.o
                                       0xb0a5 (size before relaxing)
 .debug_str     0x000000000000c7fd       0x32 /home/zxli/code/parrot-groundsdk/out/olympe-linux/build/libarsdk/obj/libarsdk/src/arsdk_log.c.o
                                       0xad18 (size before relaxing)
 .debug_str     0x000000000000c82f      0x1b0 /home/zxli/code/parrot-groundsdk/out/olympe-linux/build/libarsdk/obj/libarsdk/src/arsdk_peer.c.o
                                       0xb71d (size before relaxing)
 .debug_str     0x000000000000c9df      0x1d6 /home/zxli/code/parrot-groundsdk/out/olympe-linux/build/libarsdk/obj/libarsdk/src/arsdk_transport.c.o
                                       0xb300 (size before relaxing)
 .debug_str     0x000000000000cbb5      0x951 /home/zxli/code/parrot-groundsdk/out/olympe-linux/build/libarsdk/obj/libarsdk/src/net/arsdk_backend_net.c.o
                                       0xbe12 (size before relaxing)
 .debug_str     0x000000000000d506      0x15a /home/zxli/code/parrot-groundsdk/out/olympe-linux/build/libarsdk/obj/libarsdk/src/net/arsdk_publisher_avahi.c.o
                                       0xb380 (size before relaxing)
 .debug_str     0x000000000000d660      0x177 /home/zxli/code/parrot-groundsdk/out/olympe-linux/build/libarsdk/obj/libarsdk/src/net/arsdk_publisher_net.c.o
                                       0xbb38 (size before relaxing)
 .debug_str     0x000000000000d7d7      0x75b /home/zxli/code/parrot-groundsdk/out/olympe-linux/build/libarsdk/obj/libarsdk/src/net/arsdk_transport_net.c.o
                                       0xbbe6 (size before relaxing)
 .debug_str     0x000000000000df32      0x398 /home/zxli/code/parrot-groundsdk/out/olympe-linux/build/libarsdk/obj/libarsdk/src/mux/arsdk_backend_mux.c.o
                                       0xb99a (size before relaxing)
 .debug_str     0x000000000000e2ca      0x12e /home/zxli/code/parrot-groundsdk/out/olympe-linux/build/libarsdk/obj/libarsdk/src/mux/arsdk_publisher_mux.c.o
                                       0xb347 (size before relaxing)
 .debug_str     0x000000000000e3f8      0x172 /home/zxli/code/parrot-groundsdk/out/olympe-linux/build/libarsdk/obj/libarsdk/src/mux/arsdk_transport_mux.c.o
                                       0xb426 (size before relaxing)
 .debug_str     0x000000000000e56a    0x2c54c /home/zxli/code/parrot-groundsdk/out/olympe-linux/staging/usr/lib/libarsdkgen.a(arsdk_cmd_desc.c.o)
                                      0x36f28 (size before relaxing)

.debug_loc      0x0000000000000000    0x398cf
 *(.debug_loc)
 .debug_loc     0x0000000000000000     0x1bf8 /home/zxli/code/parrot-groundsdk/out/olympe-linux/build/libarsdk/obj/libarsdk/src/arsdk_backend.c.o
 .debug_loc     0x0000000000001bf8     0x224d /home/zxli/code/parrot-groundsdk/out/olympe-linux/build/libarsdk/obj/libarsdk/src/cmd_itf/arsdk_cmd_itf.c.o
 .debug_loc     0x0000000000003e45     0x58f0 /home/zxli/code/parrot-groundsdk/out/olympe-linux/build/libarsdk/obj/libarsdk/src/cmd_itf/arsdk_cmd_itf1.c.o
 .debug_loc     0x0000000000009735     0x649f /home/zxli/code/parrot-groundsdk/out/olympe-linux/build/libarsdk/obj/libarsdk/src/cmd_itf/arsdk_cmd_itf2.c.o
 .debug_loc     0x000000000000fbd4     0x6896 /home/zxli/code/parrot-groundsdk/out/olympe-linux/build/libarsdk/obj/libarsdk/src/cmd_itf/arsdk_cmd_itf3.c.o
 .debug_loc     0x000000000001646a     0x4263 /home/zxli/code/parrot-groundsdk/out/olympe-linux/build/libarsdk/obj/libarsdk/src/arsdk_decoder.c.o
 .debug_loc     0x000000000001a6cd     0x2727 /home/zxli/code/parrot-groundsdk/out/olympe-linux/build/libarsdk/obj/libarsdk/src/arsdk_mngr.c.o
 .debug_loc     0x000000000001cdf4     0x1834 /home/zxli/code/parrot-groundsdk/out/olympe-linux/build/libarsdk/obj/libarsdk/src/arsdk_encoder.c.o
 .debug_loc     0x000000000001e628     0x3363 /home/zxli/code/parrot-groundsdk/out/olympe-linux/build/libarsdk/obj/libarsdk/src/arsdk_peer.c.o
 .debug_loc     0x000000000002198b     0x387a /home/zxli/code/parrot-groundsdk/out/olympe-linux/build/libarsdk/obj/libarsdk/src/arsdk_transport.c.o
 .debug_loc     0x0000000000025205     0x496d /home/zxli/code/parrot-groundsdk/out/olympe-linux/build/libarsdk/obj/libarsdk/src/net/arsdk_backend_net.c.o
 .debug_loc     0x0000000000029b72      0xf0b /home/zxli/code/parrot-groundsdk/out/olympe-linux/build/libarsdk/obj/libarsdk/src/net/arsdk_publisher_avahi.c.o
 .debug_loc     0x000000000002aa7d     0x1dec /home/zxli/code/parrot-groundsdk/out/olympe-linux/build/libarsdk/obj/libarsdk/src/net/arsdk_publisher_net.c.o
 .debug_loc     0x000000000002c869     0x4bc7 /home/zxli/code/parrot-groundsdk/out/olympe-linux/build/libarsdk/obj/libarsdk/src/net/arsdk_transport_net.c.o
 .debug_loc     0x0000000000031430     0x3a76 /home/zxli/code/parrot-groundsdk/out/olympe-linux/build/libarsdk/obj/libarsdk/src/mux/arsdk_backend_mux.c.o
 .debug_loc     0x0000000000034ea6     0x1cac /home/zxli/code/parrot-groundsdk/out/olympe-linux/build/libarsdk/obj/libarsdk/src/mux/arsdk_publisher_mux.c.o
 .debug_loc     0x0000000000036b52     0x2d7d /home/zxli/code/parrot-groundsdk/out/olympe-linux/build/libarsdk/obj/libarsdk/src/mux/arsdk_transport_mux.c.o

.debug_macinfo
 *(.debug_macinfo)

.debug_weaknames
 *(.debug_weaknames)

.debug_funcnames
 *(.debug_funcnames)

.debug_typenames
 *(.debug_typenames)

.debug_varnames
 *(.debug_varnames)

.debug_pubtypes
 *(.debug_pubtypes)

.debug_ranges   0x0000000000000000     0x9f50
 *(.debug_ranges)
 .debug_ranges  0x0000000000000000      0x420 /home/zxli/code/parrot-groundsdk/out/olympe-linux/build/libarsdk/obj/libarsdk/src/arsdk_backend.c.o
 .debug_ranges  0x0000000000000420      0x3c0 /home/zxli/code/parrot-groundsdk/out/olympe-linux/build/libarsdk/obj/libarsdk/src/cmd_itf/arsdk_cmd_itf.c.o
 .debug_ranges  0x00000000000007e0      0xc90 /home/zxli/code/parrot-groundsdk/out/olympe-linux/build/libarsdk/obj/libarsdk/src/cmd_itf/arsdk_cmd_itf1.c.o
 .debug_ranges  0x0000000000001470      0xf50 /home/zxli/code/parrot-groundsdk/out/olympe-linux/build/libarsdk/obj/libarsdk/src/cmd_itf/arsdk_cmd_itf2.c.o
 .debug_ranges  0x00000000000023c0     0x1140 /home/zxli/code/parrot-groundsdk/out/olympe-linux/build/libarsdk/obj/libarsdk/src/cmd_itf/arsdk_cmd_itf3.c.o
 .debug_ranges  0x0000000000003500      0xd10 /home/zxli/code/parrot-groundsdk/out/olympe-linux/build/libarsdk/obj/libarsdk/src/arsdk_decoder.c.o
 .debug_ranges  0x0000000000004210      0x600 /home/zxli/code/parrot-groundsdk/out/olympe-linux/build/libarsdk/obj/libarsdk/src/arsdk_mngr.c.o
 .debug_ranges  0x0000000000004810      0x3b0 /home/zxli/code/parrot-groundsdk/out/olympe-linux/build/libarsdk/obj/libarsdk/src/arsdk_encoder.c.o
 .debug_ranges  0x0000000000004bc0      0x730 /home/zxli/code/parrot-groundsdk/out/olympe-linux/build/libarsdk/obj/libarsdk/src/arsdk_peer.c.o
 .debug_ranges  0x00000000000052f0      0x990 /home/zxli/code/parrot-groundsdk/out/olympe-linux/build/libarsdk/obj/libarsdk/src/arsdk_transport.c.o
 .debug_ranges  0x0000000000005c80      0xe70 /home/zxli/code/parrot-groundsdk/out/olympe-linux/build/libarsdk/obj/libarsdk/src/net/arsdk_backend_net.c.o
 .debug_ranges  0x0000000000006af0      0x340 /home/zxli/code/parrot-groundsdk/out/olympe-linux/build/libarsdk/obj/libarsdk/src/net/arsdk_publisher_avahi.c.o
 .debug_ranges  0x0000000000006e30      0x550 /home/zxli/code/parrot-groundsdk/out/olympe-linux/build/libarsdk/obj/libarsdk/src/net/arsdk_publisher_net.c.o
 .debug_ranges  0x0000000000007380     0x10d0 /home/zxli/code/parrot-groundsdk/out/olympe-linux/build/libarsdk/obj/libarsdk/src/net/arsdk_transport_net.c.o
 .debug_ranges  0x0000000000008450      0xd80 /home/zxli/code/parrot-groundsdk/out/olympe-linux/build/libarsdk/obj/libarsdk/src/mux/arsdk_backend_mux.c.o
 .debug_ranges  0x00000000000091d0      0x500 /home/zxli/code/parrot-groundsdk/out/olympe-linux/build/libarsdk/obj/libarsdk/src/mux/arsdk_publisher_mux.c.o
 .debug_ranges  0x00000000000096d0      0x860 /home/zxli/code/parrot-groundsdk/out/olympe-linux/build/libarsdk/obj/libarsdk/src/mux/arsdk_transport_mux.c.o
 .debug_ranges  0x0000000000009f30       0x20 /home/zxli/code/parrot-groundsdk/out/olympe-linux/staging/usr/lib/libarsdkgen.a(arsdk_cmd_desc.c.o)

.debug_macro
 *(.debug_macro)

.debug_addr
 *(.debug_addr)

.gnu.attributes
 *(.gnu.attributes)

/DISCARD/
 *(.note.GNU-stack)
 *(.gnu_debuglink)
 *(.gnu.lto_*)
OUTPUT(out/olympe-linux/build/libarsdk/libarsdk.so elf64-x86-64)
